#if defined(__aarch64__) && defined(ENABLE_PRIMJS_SNAPSHOT) && defined(ENABLE_QUICKJS_DEBUGGER)
.text
.align 2
.global __exception_handler_entry
__exception_handler_entry:
.word 0xf9400a68
.word 0xf9407109
.word 0xb940e903
cbz w3, Label_3
.word 0xaa0903f9
.word 0xd2800002
.word 0xd2800003
.word 0xd2800005
.word 0xd2800006
.word 0xaa1603e4
.word 0xaa0903e1
.word 0xaa1303e0
.word 0xa9bf7ffe
bl _build_backtrace
.word 0xa8c17ffe
.word 0xaa1903e9
Label_3:
.word 0xaa0903e1
.word 0xaa1303e0
.word 0xa9bf7ffe
bl _JS_IsUncatchableError_GC
.word 0xa8c17ffe
cbnz x0, Label_1
.word 0xf85803bb
Label_4:
.word 0xeb1b029f
b.EQ Label_1
.word 0xf85f8e99
.word 0xd2801ee8
.word 0xf2ffffe8
.word 0xea080328
.word 0xf101091f
b.NE Label_4
.word 0xd350ff39
cbnz x25, Label_5
.word 0xf85f8e88
.word 0xf85f8288
.word 0xb24003e2
.word 0xaa0803e1
.word 0xaa1303e0
.word 0xa9bf7ffe
bl _JS_IteratorClose
.word 0xa8c17ffe
b Label_4
Label_5:
.word 0xf85e83ac
.word 0xf9400a68
.word 0xf9407109
.word 0xf8008689
.word 0xb27f03e9
.word 0xf9007109
.word 0xf9401988
.word 0xf9400508
.word 0x8b190116
.word 0xb9414269
cbz w9, Label_6
.word 0xf8008680
.word 0xf8008681
.word 0xb10006c8
.word 0xf85e83ac
.word 0xf9401989
.word 0xaa0903e2
.word 0xaa0803e1
.word 0xaa1303e0
.word 0xa9bf7ffe
bl _DebuggerCallEachOp
.word 0xa8c17ffe
.word 0xf85f8e81
.word 0xf85f8e80
Label_6:
.word 0x38400ec8
.word 0x91000108
.word 0xf8685aa9
.word 0xd61f0120
Label_1:
.word 0xf85e83ac
.word 0xf9401988
.word 0x39401908
.word 0x121c0508
.word 0xf100011f
b.NE Label_7
.word 0xf85b83b1
.word 0xf9400a69
.word 0xf940022a
.word 0xf900792a
.word 0xaa1103e1
.word 0xaa1303e0
.word 0xa9bf7ffe
bl _prim_close_var_refs_gc
.word 0xa8c17ffe
.word 0xf85c03bb
Label_10:
.word 0xeb1b029f
b.EQ Label_9
.word 0xf85f8e88
b Label_10
Label_9:
.word 0xa9770ba0
cbnz x0, Label_11
b Label_12
Label_11:
.word 0xb9411e60
.word 0x4b020000
.word 0xb9011e60
Label_12:
.word 0xf94007be
.cfi_startproc
.word 0x910003bf
.word 0xa8c17bfd
.cfi_def_cfa x29,  16
.cfi_offset x29, -16
.cfi_offset x30, -8
.cfi_endproc
b Label_8
Label_7:
.word 0xf85b83b1
.word 0xf9001a36
.word 0xf9002234
.word 0xf9400228
.word 0xf9400a69
.word 0xf9007928
.word 0xf94007be
.cfi_startproc
.word 0x910003bf
.word 0xa8c17bfd
.cfi_def_cfa x29,  16
.cfi_offset x29, -16
.cfi_offset x30, -8
.cfi_endproc
Label_8:
.word 0xd2801040
.word 0xd65f03c0
.word 0xd4bbd5c1
.word 0xd4bbd5c1
.global _return_entry_0_1
_return_entry_0_1:
.cfi_startproc
.cfi_def_cfa x29,  16
.cfi_offset x29, -16
.cfi_offset x30, -8
.word 0xf85f03b4
.word 0xf85e03ae
.word 0x910005d8
.word 0xea18031f
b.LE Label_13
Label_14:
.word 0xd1002294
.word 0xd1000718
cbnz x24, Label_14
Label_13:
.word 0xf85983b6
.word 0xf85c83ba
.word 0xa97ae3b7
.word 0xf85a03bc
.word 0xf85903a9
.word 0x9100013f
.word 0xf102081f
b.NE Label_15
.word 0x910006d6
.word 0xf85b83b1
.word 0xf9002234
b __exception_handler_entry
Label_15:
.word 0xb9414269
cbz w9, Label_16
.word 0xf8008680
.word 0xf8008681
.word 0xb1000ac8
.word 0xf85e83ac
.word 0xf9401989
.word 0xaa0903e2
.word 0xaa0803e1
.word 0xaa1303e0
.word 0xa9bf7ffe
bl _DebuggerCallEachOp
.word 0xa8c17ffe
.word 0xf85f8e81
.word 0xf85f8e80
Label_16:
.word 0x38401ec8
.word 0x91000108
.word 0xf8685aa9
.word 0xd61f0120
.cfi_endproc
.global _return_entry_1_1
_return_entry_1_1:
.cfi_startproc
.cfi_def_cfa x29,  16
.cfi_offset x29, -16
.cfi_offset x30, -8
.word 0xf85f03b4
.word 0xf85e03ae
.word 0x910005d8
.word 0xea18031f
b.LE Label_17
Label_18:
.word 0xd1002294
.word 0xd1000718
cbnz x24, Label_18
Label_17:
.word 0xf85983b6
.word 0xf85c83ba
.word 0xa97ae3b7
.word 0xf85a03bc
.word 0xf85903a9
.word 0x9100013f
.word 0xf102081f
b.NE Label_19
.word 0x910006d6
.word 0xf85b83b1
.word 0xf9002234
b __exception_handler_entry
Label_19:
.word 0xb9414269
cbz w9, Label_20
.word 0xf8008680
.word 0xf8008681
.word 0xb1000ac8
.word 0xf85e83ac
.word 0xf9401989
.word 0xaa0903e2
.word 0xaa0803e1
.word 0xaa1303e0
.word 0xa9bf7ffe
bl _DebuggerCallEachOp
.word 0xa8c17ffe
.word 0xf85f8e81
.word 0xf85f8e80
Label_20:
.word 0x38401ec8
.word 0x9103c908
.word 0xf8685aa9
.word 0xd61f0120
.cfi_endproc
.global _return_entry_2_1
_return_entry_2_1:
.cfi_startproc
.cfi_def_cfa x29,  16
.cfi_offset x29, -16
.cfi_offset x30, -8
.word 0xf85f03b4
.word 0xf85e03ae
.word 0x910005d8
.word 0xea18031f
b.LE Label_21
Label_22:
.word 0xd1002294
.word 0xd1000718
cbnz x24, Label_22
Label_21:
.word 0xf85983b6
.word 0xf85c83ba
.word 0xa97ae3b7
.word 0xf85a03bc
.word 0xf85903a9
.word 0x9100013f
.word 0xf102081f
b.NE Label_23
.word 0x910006d6
.word 0xf85b83b1
.word 0xf9002234
b __exception_handler_entry
Label_23:
.word 0xb9414269
cbz w9, Label_24
.word 0xf8008680
.word 0xf8008681
.word 0xb1000ac8
.word 0xf85e83ac
.word 0xf9401989
.word 0xaa0903e2
.word 0xaa0803e1
.word 0xaa1303e0
.word 0xa9bf7ffe
bl _DebuggerCallEachOp
.word 0xa8c17ffe
.word 0xf85f8e81
.word 0xf85f8e80
Label_24:
.word 0x38401ec8
.word 0x91079108
.word 0xf8685aa9
.word 0xd61f0120
.cfi_endproc
.global _return_entry_0_2
_return_entry_0_2:
.cfi_startproc
.cfi_def_cfa x29,  16
.cfi_offset x29, -16
.cfi_offset x30, -8
.word 0xf85f03b4
.word 0xf85e03ae
.word 0x910005d8
.word 0xea18031f
b.LE Label_25
Label_26:
.word 0xd1002294
.word 0xd1000718
cbnz x24, Label_26
Label_25:
.word 0xf85983b6
.word 0xf85c83ba
.word 0xa97ae3b7
.word 0xf85a03bc
.word 0xf85903a9
.word 0x9100013f
.word 0xf102081f
b.NE Label_27
.word 0x91000ad6
.word 0xf85b83b1
.word 0xf9002234
b __exception_handler_entry
Label_27:
.word 0xb9414269
cbz w9, Label_28
.word 0xf8008680
.word 0xf8008681
.word 0xb1000ec8
.word 0xf85e83ac
.word 0xf9401989
.word 0xaa0903e2
.word 0xaa0803e1
.word 0xaa1303e0
.word 0xa9bf7ffe
bl _DebuggerCallEachOp
.word 0xa8c17ffe
.word 0xf85f8e81
.word 0xf85f8e80
Label_28:
.word 0x38402ec8
.word 0x91000108
.word 0xf8685aa9
.word 0xd61f0120
.cfi_endproc
.global _return_entry_1_2
_return_entry_1_2:
.cfi_startproc
.cfi_def_cfa x29,  16
.cfi_offset x29, -16
.cfi_offset x30, -8
.word 0xf85f03b4
.word 0xf85e03ae
.word 0x910005d8
.word 0xea18031f
b.LE Label_29
Label_30:
.word 0xd1002294
.word 0xd1000718
cbnz x24, Label_30
Label_29:
.word 0xf85983b6
.word 0xf85c83ba
.word 0xa97ae3b7
.word 0xf85a03bc
.word 0xf85903a9
.word 0x9100013f
.word 0xf102081f
b.NE Label_31
.word 0x91000ad6
.word 0xf85b83b1
.word 0xf9002234
b __exception_handler_entry
Label_31:
.word 0xb9414269
cbz w9, Label_32
.word 0xf8008680
.word 0xf8008681
.word 0xb1000ec8
.word 0xf85e83ac
.word 0xf9401989
.word 0xaa0903e2
.word 0xaa0803e1
.word 0xaa1303e0
.word 0xa9bf7ffe
bl _DebuggerCallEachOp
.word 0xa8c17ffe
.word 0xf85f8e81
.word 0xf85f8e80
Label_32:
.word 0x38402ec8
.word 0x9103c908
.word 0xf8685aa9
.word 0xd61f0120
.cfi_endproc
.global _return_entry_2_2
_return_entry_2_2:
.cfi_startproc
.cfi_def_cfa x29,  16
.cfi_offset x29, -16
.cfi_offset x30, -8
.word 0xf85f03b4
.word 0xf85e03ae
.word 0x910005d8
.word 0xea18031f
b.LE Label_33
Label_34:
.word 0xd1002294
.word 0xd1000718
cbnz x24, Label_34
Label_33:
.word 0xf85983b6
.word 0xf85c83ba
.word 0xa97ae3b7
.word 0xf85a03bc
.word 0xf85903a9
.word 0x9100013f
.word 0xf102081f
b.NE Label_35
.word 0x91000ad6
.word 0xf85b83b1
.word 0xf9002234
b __exception_handler_entry
Label_35:
.word 0xb9414269
cbz w9, Label_36
.word 0xf8008680
.word 0xf8008681
.word 0xb1000ec8
.word 0xf85e83ac
.word 0xf9401989
.word 0xaa0903e2
.word 0xaa0803e1
.word 0xaa1303e0
.word 0xa9bf7ffe
bl _DebuggerCallEachOp
.word 0xa8c17ffe
.word 0xf85f8e81
.word 0xf85f8e80
Label_36:
.word 0x38402ec8
.word 0x91079108
.word 0xf8685aa9
.word 0xd61f0120
.cfi_endproc
.global _return_entry_0_3
_return_entry_0_3:
.cfi_startproc
.cfi_def_cfa x29,  16
.cfi_offset x29, -16
.cfi_offset x30, -8
.word 0xf85f03b4
.word 0xf85e03ae
.word 0x910005d8
.word 0xea18031f
b.LE Label_37
Label_38:
.word 0xd1002294
.word 0xd1000718
cbnz x24, Label_38
Label_37:
.word 0xf85983b6
.word 0xf85c83ba
.word 0xa97ae3b7
.word 0xf85a03bc
.word 0xf85903a9
.word 0x9100013f
.word 0xf102081f
b.NE Label_39
.word 0x91000ed6
.word 0xf85b83b1
.word 0xf9002234
b __exception_handler_entry
Label_39:
.word 0xb9414269
cbz w9, Label_40
.word 0xf8008680
.word 0xf8008681
.word 0xb10012c8
.word 0xf85e83ac
.word 0xf9401989
.word 0xaa0903e2
.word 0xaa0803e1
.word 0xaa1303e0
.word 0xa9bf7ffe
bl _DebuggerCallEachOp
.word 0xa8c17ffe
.word 0xf85f8e81
.word 0xf85f8e80
Label_40:
.word 0x38403ec8
.word 0x91000108
.word 0xf8685aa9
.word 0xd61f0120
.cfi_endproc
.global _return_entry_1_3
_return_entry_1_3:
.cfi_startproc
.cfi_def_cfa x29,  16
.cfi_offset x29, -16
.cfi_offset x30, -8
.word 0xf85f03b4
.word 0xf85e03ae
.word 0x910005d8
.word 0xea18031f
b.LE Label_41
Label_42:
.word 0xd1002294
.word 0xd1000718
cbnz x24, Label_42
Label_41:
.word 0xf85983b6
.word 0xf85c83ba
.word 0xa97ae3b7
.word 0xf85a03bc
.word 0xf85903a9
.word 0x9100013f
.word 0xf102081f
b.NE Label_43
.word 0x91000ed6
.word 0xf85b83b1
.word 0xf9002234
b __exception_handler_entry
Label_43:
.word 0xb9414269
cbz w9, Label_44
.word 0xf8008680
.word 0xf8008681
.word 0xb10012c8
.word 0xf85e83ac
.word 0xf9401989
.word 0xaa0903e2
.word 0xaa0803e1
.word 0xaa1303e0
.word 0xa9bf7ffe
bl _DebuggerCallEachOp
.word 0xa8c17ffe
.word 0xf85f8e81
.word 0xf85f8e80
Label_44:
.word 0x38403ec8
.word 0x9103c908
.word 0xf8685aa9
.word 0xd61f0120
.cfi_endproc
.global _return_entry_2_3
_return_entry_2_3:
.cfi_startproc
.cfi_def_cfa x29,  16
.cfi_offset x29, -16
.cfi_offset x30, -8
.word 0xf85f03b4
.word 0xf85e03ae
.word 0x910005d8
.word 0xea18031f
b.LE Label_45
Label_46:
.word 0xd1002294
.word 0xd1000718
cbnz x24, Label_46
Label_45:
.word 0xf85983b6
.word 0xf85c83ba
.word 0xa97ae3b7
.word 0xf85a03bc
.word 0xf85903a9
.word 0x9100013f
.word 0xf102081f
b.NE Label_47
.word 0x91000ed6
.word 0xf85b83b1
.word 0xf9002234
b __exception_handler_entry
Label_47:
.word 0xb9414269
cbz w9, Label_48
.word 0xf8008680
.word 0xf8008681
.word 0xb10012c8
.word 0xf85e83ac
.word 0xf9401989
.word 0xaa0903e2
.word 0xaa0803e1
.word 0xaa1303e0
.word 0xa9bf7ffe
bl _DebuggerCallEachOp
.word 0xa8c17ffe
.word 0xf85f8e81
.word 0xf85f8e80
Label_48:
.word 0x38403ec8
.word 0x91079108
.word 0xf8685aa9
.word 0xd61f0120
.cfi_endproc
.global _normal_entry
_normal_entry:
.cfi_startproc
.word 0xd10283ff
.word 0xf9401983
.word 0x79405062
.word 0x79405463
.word 0xeb0201df
b.LT Label_50
.word 0x721f00df
b.NE Label_50
.word 0xd2800008
b Label_49
Label_50:
.word 0xaa0203e8
Label_49:
.word 0xd101c3f4
.word 0xaa1403fb
.word 0xa9097bfd
.cfi_def_cfa x29,  16
.cfi_offset x29, -16
.cfi_offset x30, -8
.word 0xd101c3f1
.word 0xd2800001
.word 0xf9401989
.word 0x79405d29
.word 0xb294c29
.word 0xb284d29
.word 0xb234d29
.word 0x11008129
.word 0xa9bf3fec
.word 0xa9bf7bee
.word 0xa9bf47ed
.word 0xa9bf27e8
.word 0xa9bf0fe2
.word 0xaa0903e1
.word 0xaa1303e0
.word 0xa9bf7ffe
bl _js_check_stack_overflow
.word 0xa8c17ffe
.word 0xa8c10fe2
.word 0xa8c127e8
.word 0xa8c147ed
.word 0xa8c17bee
.word 0xa8c13fec
cbnz x0, Label_51
.word 0xf9409266
cbz x6, Label_53
.word 0xb9411e67
.word 0xb0900e4
.word 0xf9400a65
.word 0xf9406ca5
.word 0x93407c80
.word 0xcb050000
b.GT Label_54
.word 0x8b0700d4
.word 0xb9011e64
b Label_52
Label_53:
.word 0xa9bf7bee
.word 0xaa1303e0
.word 0xa9bf7ffe
bl _LEPUS_ThrowOutOfMemory
.word 0xa8c17ffe
.word 0xa8c17bee
.word 0xd65f03c0
Label_54:
.word 0xa9bf7bee
.word 0xaa1303e0
.word 0xa9bf7ffe
bl _JS_ThrowStackOverflow_GC
.word 0xa8c17ffe
.word 0xa8c17bee
.word 0xd65f03c0
b Label_52
Label_51:
.word 0xa9bf7bee
.word 0xaa1303e0
.word 0xa9bf7ffe
bl _JS_ThrowStackOverflow_GC
.word 0xa8c17ffe
.word 0xa8c17bee
.word 0xd65f03c0
Label_52:
.word 0x910243fd
.word 0x9100037f
.word 0xaa1b03e0
.word 0xaa0903e7
.word 0xb9003a2e
.word 0xaa1703fb
cbz x8, Label_55
.word 0xeb0201df
.word 0xaa0e03eb
b.LE Label_56
.word 0xaa0203eb
Label_56:
.word 0xd2800009
Label_58:
.word 0xeb0b013f
b.EQ Label_57
.word 0xf8697aea
.word 0xf8297a8a
.word 0x11000529
b Label_58
Label_57:
Label_60:
.word 0xeb02013f
b.EQ Label_59
.word 0xd280024a
.word 0xf8297a8a
.word 0x11000529
b Label_60
Label_59:
.word 0xaa1403f7
.word 0xb9003a22
Label_55:
.word 0x8b284e98
.word 0xaa1403f0
.word 0x8b234f14
.word 0xaa1803e9
.word 0xea03007f
b.LE Label_61
Label_62:
.word 0xd280024a
.word 0xf800852a
.word 0xd1000463
cbnz x3, Label_62
Label_61:
.word 0xf9401988
.word 0xf9400516
.word 0xa9386fb4
.word 0xa9395ba0
.word 0xb24003e1
.word 0xa9371fa1
.word 0xa93e33ae
.word 0xf940191a
.word 0xf9401d9c
.word 0xa93c6bb0
.word 0xa93f37bf
.word 0xa93d67af
.word 0xa93b7fb8
.word 0xa93a5fbc
.word 0xf81e03ae
.word 0xa93b47b8
.word 0x39401509
.word 0xb9003e29
.word 0xf900062c
.word 0xf9002e3f
.word 0x79405509
.word 0xb9403a28
.word 0xb090109
.word 0xb9006229
.word 0xb9414268
cbz w8, Label_63
.word 0xf9400a68
.word 0x91084108
.word 0x9100c108
.word 0xf9400108
cbz x8, Label_65
.word 0xf9409668
cbz x8, Label_65
.word 0xf9002a39
b Label_64
Label_65:
.word 0x52a00008
.word 0xb9014268
Label_63:
.word 0xd2800248
.word 0xf9002a28
Label_64:
.word 0xa9016237
.word 0x91008229
.word 0xa9002529
.word 0xf9002234
.word 0xf9400a69
.word 0xf940792a
.word 0xf900022a
.word 0xf9007931
.word 0xb9414269
cbz w9, Label_66
.word 0x910006c8
.word 0xaa0803e1
.word 0xaa1303e0
.word 0xa9bf7ffe
bl _DebuggerCallEachFunc
.word 0xa8c17ffe
Label_66:
.word 0xb9414269
cbz w9, Label_67
.word 0xf8008680
.word 0xf8008681
.word 0xb10006c8
.word 0xf85e83ac
.word 0xf9401989
.word 0xaa0903e2
.word 0xaa0803e1
.word 0xaa1303e0
.word 0xa9bf7ffe
bl _DebuggerCallEachOp
.word 0xa8c17ffe
.word 0xf85f8e81
.word 0xf85f8e80
Label_67:
.word 0x38400ec8
.word 0x91000108
.word 0xf8685aa9
.word 0xd63f0120
.word 0xd2802460
.cfi_endproc
.global _native_entry
_native_entry:
.cfi_startproc
.cfi_def_cfa x29,  16
.cfi_offset x29, -16
.cfi_offset x30, -8
.word 0xaa1303e0
.word 0xaa0c03e1
.word 0xaa1903e2
.word 0xaa0e03e3
.word 0xf9400a69
.word 0x79400d88
.word 0xf9402929
.word 0xd280050a
.word 0x9b0a2509
.word 0xf9400d28
.word 0xf100011f
b.EQ Label_68
.word 0xaa0603e5
.word 0xaa1703e4
.word 0xd61f0100
Label_68:
.word 0xaa1303e0
b _JS_ThrowTypeErrorNotFunction
.cfi_endproc
.global _async_entry
_async_entry:
.word 0xaa1703fb
.word 0x927eb58b
.word 0x91004171
.word 0xf9400628
.word 0xf9401909
.word 0xf9401d1c
.word 0xf9400a37
.word 0xaa1703f0
.word 0xf9400e38
.word 0xf9402234
.word 0x79405529
.word 0x8b294f0a
.word 0xf9002634
.word 0xf900223f
.word 0xf9401a36
.word 0xf9400a68
.word 0xf9407909
.word 0xf9000229
.word 0xf9007911
.word 0xd10283ff
.cfi_startproc
.word 0xa9097bfd
.word 0x910243fd
.cfi_def_cfa x29,  16
.cfi_offset x29, -16
.cfi_offset x30, -8
.word 0x910003e8
.word 0xa9395ba8
.word 0xa9386faa
.word 0xd2800000
.word 0xf81783a0
.word 0xf9400628
.word 0xf9401909
.word 0xa93e23ae
.word 0xf940193a
.word 0xf9401d1c
.word 0xa93c6bb0
.word 0xa93f37bf
.word 0xa93d67af
.word 0xa93b7fb8
.word 0xa93a5fbc
.word 0xf81e03ae
.word 0xa93b47b8
.word 0xb9400d68
.word 0xf100011f
b.EQ Label_69
b __exception_handler_entry
Label_69:
.word 0xb9414269
cbz w9, Label_70
.word 0xf8008680
.word 0xf8008681
.word 0xb10006c8
.word 0xf85e83ac
.word 0xf9401989
.word 0xaa0903e2
.word 0xaa0803e1
.word 0xaa1303e0
.word 0xa9bf7ffe
bl _DebuggerCallEachOp
.word 0xa8c17ffe
.word 0xf85f8e81
.word 0xf85f8e80
Label_70:
.word 0x38400ec8
.word 0x91000108
.word 0xf8685aa9
.word 0xd63f0120
.word 0xd2802460
.cfi_endproc
.global __dispatch_table
__dispatch_table:
.global _dispatch_table_0_1
_dispatch_table_0_1:
.word 0xb84012c0
.word 0xb24f3800
.word 0xb9414269
cbz w9, Label_71
.word 0xf8008680
.word 0xf8008681
.word 0xb1001ac8
.word 0xf85e83ac
.word 0xf9401989
.word 0xaa0903e2
.word 0xaa0803e1
.word 0xaa1303e0
.word 0xa9bf7ffe
bl _DebuggerCallEachOp
.word 0xa8c17ffe
.word 0xf85f8e81
.word 0xf85f8e80
Label_71:
.word 0x38405ec8
.word 0x9103c908
.word 0xf8685aa9
.word 0xd61f0120
.global _dispatch_table_1_1
_dispatch_table_1_1:
.word 0xb84012c1
.word 0xb24f3821
.word 0xb9414269
cbz w9, Label_72
.word 0xf8008680
.word 0xf8008681
.word 0xb1001ac8
.word 0xf85e83ac
.word 0xf9401989
.word 0xaa0903e2
.word 0xaa0803e1
.word 0xaa1303e0
.word 0xa9bf7ffe
bl _DebuggerCallEachOp
.word 0xa8c17ffe
.word 0xf85f8e81
.word 0xf85f8e80
Label_72:
.word 0x38405ec8
.word 0x91079108
.word 0xf8685aa9
.word 0xd61f0120
.global _dispatch_table_2_1
_dispatch_table_2_1:
.word 0xf8008680
.word 0xaa0103e0
.word 0xb84012c1
.word 0xb24f3821
.word 0xb9414269
cbz w9, Label_73
.word 0xf8008680
.word 0xf8008681
.word 0xb1001ac8
.word 0xf85e83ac
.word 0xf9401989
.word 0xaa0903e2
.word 0xaa0803e1
.word 0xaa1303e0
.word 0xa9bf7ffe
bl _DebuggerCallEachOp
.word 0xa8c17ffe
.word 0xf85f8e81
.word 0xf85f8e80
Label_73:
.word 0x38405ec8
.word 0x91079108
.word 0xf8685aa9
.word 0xd61f0120
.global _dispatch_table_0_2
_dispatch_table_0_2:
.word 0xb84012c0
.word 0xf8607b40
.word 0xb9414268
cbz w8, Label_74
.word 0xf8008680
.word 0xaa1603e2
.word 0xaa0003e1
.word 0xaa1303e0
.word 0xa9bf7ffe
bl _DebuggerPause
.word 0xa8c17ffe
.word 0xf85f8e80
Label_74:
.word 0xb9414269
cbz w9, Label_75
.word 0xf8008680
.word 0xf8008681
.word 0xb1001ac8
.word 0xf85e83ac
.word 0xf9401989
.word 0xaa0903e2
.word 0xaa0803e1
.word 0xaa1303e0
.word 0xa9bf7ffe
bl _DebuggerCallEachOp
.word 0xa8c17ffe
.word 0xf85f8e81
.word 0xf85f8e80
Label_75:
.word 0x38405ec8
.word 0x9103c908
.word 0xf8685aa9
.word 0xd61f0120
.global _dispatch_table_1_2
_dispatch_table_1_2:
.word 0xb84012c1
.word 0xf8617b41
.word 0xb9414268
cbz w8, Label_76
.word 0xf8008680
.word 0xf8008681
.word 0xaa1603e2
.word 0xaa1303e0
.word 0xa9bf7ffe
bl _DebuggerPause
.word 0xa8c17ffe
.word 0xf85f8e81
.word 0xf85f8e80
Label_76:
.word 0xb9414269
cbz w9, Label_77
.word 0xf8008680
.word 0xf8008681
.word 0xb1001ac8
.word 0xf85e83ac
.word 0xf9401989
.word 0xaa0903e2
.word 0xaa0803e1
.word 0xaa1303e0
.word 0xa9bf7ffe
bl _DebuggerCallEachOp
.word 0xa8c17ffe
.word 0xf85f8e81
.word 0xf85f8e80
Label_77:
.word 0x38405ec8
.word 0x91079108
.word 0xf8685aa9
.word 0xd61f0120
.global _dispatch_table_2_2
_dispatch_table_2_2:
.word 0xf8008680
.word 0xaa0103e0
.word 0xb84012c1
.word 0xf8617b41
.word 0xb9414268
cbz w8, Label_78
.word 0xf8008680
.word 0xf8008681
.word 0xaa1603e2
.word 0xaa1303e0
.word 0xa9bf7ffe
bl _DebuggerPause
.word 0xa8c17ffe
.word 0xf85f8e81
.word 0xf85f8e80
Label_78:
.word 0xb9414269
cbz w9, Label_79
.word 0xf8008680
.word 0xf8008681
.word 0xb1001ac8
.word 0xf85e83ac
.word 0xf9401989
.word 0xaa0903e2
.word 0xaa0803e1
.word 0xaa1303e0
.word 0xa9bf7ffe
bl _DebuggerCallEachOp
.word 0xa8c17ffe
.word 0xf85f8e81
.word 0xf85f8e80
Label_79:
.word 0x38405ec8
.word 0x91079108
.word 0xf8685aa9
.word 0xd61f0120
.global _dispatch_table_0_3
_dispatch_table_0_3:
.word 0xb84012c1
.word 0xf8617b41
.word 0xf85b83b1
.word 0xf8008681
.word 0xf9002234
.word 0xaa1103e3
.word 0xaa1c03e2
.word 0xaa1303e0
.word 0xa9bf7ffe
bl _js_closure_gc
.word 0xa8c17ffe
.word 0xf102081f
b.NE Label_82
.word 0xd1002294
.word 0x910016d6
.word 0xf85b83b1
.word 0xf9002234
b __exception_handler_entry
Label_82:
.word 0xd1002294
.word 0xb9414269
cbz w9, Label_85
.word 0xf8008680
.word 0xf8008681
.word 0xb1001ac8
.word 0xf85e83ac
.word 0xf9401989
.word 0xaa0903e2
.word 0xaa0803e1
.word 0xaa1303e0
.word 0xa9bf7ffe
bl _DebuggerCallEachOp
.word 0xa8c17ffe
.word 0xf85f8e81
.word 0xf85f8e80
Label_85:
.word 0x38405ec8
.word 0x9103c908
.word 0xf8685aa9
.word 0xd61f0120
.global _dispatch_table_1_3
_dispatch_table_1_3:
.word 0xb84012c1
.word 0xf8617b41
.word 0xf85b83b1
.word 0xaa0003f9
.word 0xf8008681
.word 0xf8008680
.word 0xf85b83b1
.word 0xf9002234
.word 0xaa1103e3
.word 0xaa1c03e2
.word 0xaa1303e0
.word 0xa9bf7ffe
bl _js_closure_gc
.word 0xa8c17ffe
.word 0xf102081f
b.NE Label_89
.word 0xd1002294
.word 0xd1002294
.word 0xf8008699
.word 0x910016d6
.word 0xf85b83b1
.word 0xf9002234
b __exception_handler_entry
Label_89:
.word 0xd1002294
.word 0xd1002294
.word 0xaa0003e1
.word 0xaa1903e0
.word 0xb9414269
cbz w9, Label_91
.word 0xf8008680
.word 0xf8008681
.word 0xb1001ac8
.word 0xf85e83ac
.word 0xf9401989
.word 0xaa0903e2
.word 0xaa0803e1
.word 0xaa1303e0
.word 0xa9bf7ffe
bl _DebuggerCallEachOp
.word 0xa8c17ffe
.word 0xf85f8e81
.word 0xf85f8e80
Label_91:
.word 0x38405ec8
.word 0x91079108
.word 0xf8685aa9
.word 0xd61f0120
.global _dispatch_table_2_3
_dispatch_table_2_3:
.word 0xf8008680
.word 0xf85b83b1
.word 0xaa0103f9
.word 0xb84012c1
.word 0xf8617b41
.word 0xf8008681
.word 0xf8008699
.word 0xf9002234
.word 0xaa1103e3
.word 0xaa1c03e2
.word 0xaa1303e0
.word 0xa9bf7ffe
bl _js_closure_gc
.word 0xa8c17ffe
.word 0xf102081f
b.NE Label_96
.word 0xd1002294
.word 0xd1002294
.word 0xf8008699
.word 0x910016d6
.word 0xf85b83b1
.word 0xf9002234
b __exception_handler_entry
Label_96:
.word 0xd1002294
.word 0xd1002294
.word 0xaa0003e1
.word 0xaa1903e0
.word 0xb9414269
cbz w9, Label_97
.word 0xf8008680
.word 0xf8008681
.word 0xb1001ac8
.word 0xf85e83ac
.word 0xf9401989
.word 0xaa0903e2
.word 0xaa0803e1
.word 0xaa1303e0
.word 0xa9bf7ffe
bl _DebuggerCallEachOp
.word 0xa8c17ffe
.word 0xf85f8e81
.word 0xf85f8e80
Label_97:
.word 0x38405ec8
.word 0x91079108
.word 0xf8685aa9
.word 0xd61f0120
.global _dispatch_table_0_4
_dispatch_table_0_4:
.word 0xb84012c1
.word 0xd2800002
.word 0xf85b83b1
.word 0xf9002234
.word 0xaa1303e0
.word 0xa9bf7ffe
bl ___JS_AtomToValue_GC
.word 0xa8c17ffe
.word 0xb9414269
cbz w9, Label_98
.word 0xf8008680
.word 0xf8008681
.word 0xb1001ac8
.word 0xf85e83ac
.word 0xf9401989
.word 0xaa0903e2
.word 0xaa0803e1
.word 0xaa1303e0
.word 0xa9bf7ffe
bl _DebuggerCallEachOp
.word 0xa8c17ffe
.word 0xf85f8e81
.word 0xf85f8e80
Label_98:
.word 0x38405ec8
.word 0x9103c908
.word 0xf8685aa9
.word 0xd61f0120
.global _dispatch_table_1_4
_dispatch_table_1_4:
.word 0xd2800002
.word 0xaa0003f9
.word 0xb84012c1
.word 0xf8008680
.word 0xf85b83b1
.word 0xf9002234
.word 0xaa1303e0
.word 0xa9bf7ffe
bl ___JS_AtomToValue_GC
.word 0xa8c17ffe
.word 0xd1002294
.word 0xf85b83b1
.word 0xf9002234
.word 0xaa0003e1
.word 0xaa1903e0
.word 0xb9414269
cbz w9, Label_99
.word 0xf8008680
.word 0xf8008681
.word 0xb1001ac8
.word 0xf85e83ac
.word 0xf9401989
.word 0xaa0903e2
.word 0xaa0803e1
.word 0xaa1303e0
.word 0xa9bf7ffe
bl _DebuggerCallEachOp
.word 0xa8c17ffe
.word 0xf85f8e81
.word 0xf85f8e80
Label_99:
.word 0x38405ec8
.word 0x91079108
.word 0xf8685aa9
.word 0xd61f0120
.global _dispatch_table_2_4
_dispatch_table_2_4:
.word 0xf8008680
.word 0xd2800002
.word 0xaa0103f9
.word 0xb84012c1
.word 0xf8008681
.word 0xf85b83b1
.word 0xf9002234
.word 0xaa1303e0
.word 0xa9bf7ffe
bl ___JS_AtomToValue_GC
.word 0xa8c17ffe
.word 0xd1002294
.word 0xf85b83b1
.word 0xf9002234
.word 0xaa0003e1
.word 0xaa1903e0
.word 0xb9414269
cbz w9, Label_100
.word 0xf8008680
.word 0xf8008681
.word 0xb1001ac8
.word 0xf85e83ac
.word 0xf9401989
.word 0xaa0903e2
.word 0xaa0803e1
.word 0xaa1303e0
.word 0xa9bf7ffe
bl _DebuggerCallEachOp
.word 0xa8c17ffe
.word 0xf85f8e81
.word 0xf85f8e80
Label_100:
.word 0x38405ec8
.word 0x91079108
.word 0xf8685aa9
.word 0xd61f0120
.global _dispatch_table_0_5
_dispatch_table_0_5:
.word 0xb84012c1
.word 0xb27e03e2
.word 0xf85b83b1
.word 0xf9002234
.word 0xaa1303e0
.word 0xa9bf7ffe
bl _JS_NewSymbolFromAtom_GC
.word 0xa8c17ffe
.word 0xf102081f
b.NE Label_103
.word 0x910016d6
.word 0xf85b83b1
.word 0xf9002234
b __exception_handler_entry
Label_103:
.word 0xb9414269
cbz w9, Label_104
.word 0xf8008680
.word 0xf8008681
.word 0xb1001ac8
.word 0xf85e83ac
.word 0xf9401989
.word 0xaa0903e2
.word 0xaa0803e1
.word 0xaa1303e0
.word 0xa9bf7ffe
bl _DebuggerCallEachOp
.word 0xa8c17ffe
.word 0xf85f8e81
.word 0xf85f8e80
Label_104:
.word 0x38405ec8
.word 0x9103c908
.word 0xf8685aa9
.word 0xd61f0120
.global _dispatch_table_1_5
_dispatch_table_1_5:
.word 0xb84012c1
.word 0xb27e03e2
.word 0xaa0003f9
.word 0xf8008680
.word 0xf85b83b1
.word 0xf9002234
.word 0xaa1303e0
.word 0xa9bf7ffe
bl _JS_NewSymbolFromAtom_GC
.word 0xa8c17ffe
.word 0xf102081f
b.NE Label_105
.word 0xd1002294
.word 0xf8008699
.word 0x910016d6
.word 0xf85b83b1
.word 0xf9002234
b __exception_handler_entry
Label_105:
.word 0xd1002294
.word 0xaa0003e1
.word 0xaa1903e0
.word 0xb9414269
cbz w9, Label_107
.word 0xf8008680
.word 0xf8008681
.word 0xb1001ac8
.word 0xf85e83ac
.word 0xf9401989
.word 0xaa0903e2
.word 0xaa0803e1
.word 0xaa1303e0
.word 0xa9bf7ffe
bl _DebuggerCallEachOp
.word 0xa8c17ffe
.word 0xf85f8e81
.word 0xf85f8e80
Label_107:
.word 0x38405ec8
.word 0x91079108
.word 0xf8685aa9
.word 0xd61f0120
.global _dispatch_table_2_5
_dispatch_table_2_5:
.word 0xf8008680
.word 0xf8008681
.word 0xb27e03e2
.word 0xaa0103f9
.word 0xb84012c1
.word 0xf85b83b1
.word 0xf9002234
.word 0xaa1303e0
.word 0xa9bf7ffe
bl _JS_NewSymbolFromAtom_GC
.word 0xa8c17ffe
.word 0xf102081f
b.NE Label_109
.word 0xd1002294
.word 0xf8008699
.word 0x910016d6
.word 0xf85b83b1
.word 0xf9002234
b __exception_handler_entry
Label_109:
.word 0xd1002294
.word 0xaa0003e1
.word 0xaa1903e0
.word 0xb9414269
cbz w9, Label_110
.word 0xf8008680
.word 0xf8008681
.word 0xb1001ac8
.word 0xf85e83ac
.word 0xf9401989
.word 0xaa0903e2
.word 0xaa0803e1
.word 0xaa1303e0
.word 0xa9bf7ffe
bl _DebuggerCallEachOp
.word 0xa8c17ffe
.word 0xf85f8e81
.word 0xf85f8e80
Label_110:
.word 0x38405ec8
.word 0x91079108
.word 0xf8685aa9
.word 0xd61f0120
.global _dispatch_table_0_6
_dispatch_table_0_6:
.word 0xd2800240
.word 0xb9414269
cbz w9, Label_111
.word 0xf8008680
.word 0xf8008681
.word 0xb1000ac8
.word 0xf85e83ac
.word 0xf9401989
.word 0xaa0903e2
.word 0xaa0803e1
.word 0xaa1303e0
.word 0xa9bf7ffe
bl _DebuggerCallEachOp
.word 0xa8c17ffe
.word 0xf85f8e81
.word 0xf85f8e80
Label_111:
.word 0x38401ec8
.word 0x9103c908
.word 0xf8685aa9
.word 0xd61f0120
.global _dispatch_table_1_6
_dispatch_table_1_6:
.word 0xd2800241
.word 0xb9414269
cbz w9, Label_112
.word 0xf8008680
.word 0xf8008681
.word 0xb1000ac8
.word 0xf85e83ac
.word 0xf9401989
.word 0xaa0903e2
.word 0xaa0803e1
.word 0xaa1303e0
.word 0xa9bf7ffe
bl _DebuggerCallEachOp
.word 0xa8c17ffe
.word 0xf85f8e81
.word 0xf85f8e80
Label_112:
.word 0x38401ec8
.word 0x91079108
.word 0xf8685aa9
.word 0xd61f0120
.global _dispatch_table_2_6
_dispatch_table_2_6:
.word 0xf8008680
.word 0xaa0103e0
.word 0xd2800241
.word 0xb9414269
cbz w9, Label_113
.word 0xf8008680
.word 0xf8008681
.word 0xb1000ac8
.word 0xf85e83ac
.word 0xf9401989
.word 0xaa0903e2
.word 0xaa0803e1
.word 0xaa1303e0
.word 0xa9bf7ffe
bl _DebuggerCallEachOp
.word 0xa8c17ffe
.word 0xf85f8e81
.word 0xf85f8e80
Label_113:
.word 0x38401ec8
.word 0x91079108
.word 0xf8685aa9
.word 0xd61f0120
.global _dispatch_table_0_7
_dispatch_table_0_7:
.word 0xb27f03e0
.word 0xb9414269
cbz w9, Label_114
.word 0xf8008680
.word 0xf8008681
.word 0xb1000ac8
.word 0xf85e83ac
.word 0xf9401989
.word 0xaa0903e2
.word 0xaa0803e1
.word 0xaa1303e0
.word 0xa9bf7ffe
bl _DebuggerCallEachOp
.word 0xa8c17ffe
.word 0xf85f8e81
.word 0xf85f8e80
Label_114:
.word 0x38401ec8
.word 0x9103c908
.word 0xf8685aa9
.word 0xd61f0120
.global _dispatch_table_1_7
_dispatch_table_1_7:
.word 0xb27f03e1
.word 0xb9414269
cbz w9, Label_115
.word 0xf8008680
.word 0xf8008681
.word 0xb1000ac8
.word 0xf85e83ac
.word 0xf9401989
.word 0xaa0903e2
.word 0xaa0803e1
.word 0xaa1303e0
.word 0xa9bf7ffe
bl _DebuggerCallEachOp
.word 0xa8c17ffe
.word 0xf85f8e81
.word 0xf85f8e80
Label_115:
.word 0x38401ec8
.word 0x91079108
.word 0xf8685aa9
.word 0xd61f0120
.global _dispatch_table_2_7
_dispatch_table_2_7:
.word 0xf8008680
.word 0xaa0103e0
.word 0xb27f03e1
.word 0xb9414269
cbz w9, Label_116
.word 0xf8008680
.word 0xf8008681
.word 0xb1000ac8
.word 0xf85e83ac
.word 0xf9401989
.word 0xaa0903e2
.word 0xaa0803e1
.word 0xaa1303e0
.word 0xa9bf7ffe
bl _DebuggerCallEachOp
.word 0xa8c17ffe
.word 0xf85f8e81
.word 0xf85f8e80
Label_116:
.word 0x38401ec8
.word 0x91079108
.word 0xf8685aa9
.word 0xd61f0120
.global _dispatch_table_1_8
_dispatch_table_1_8:
.word 0xf8008680
.word 0xf85b83b1
.word 0xf9002234
.word 0xf85e83ac
.word 0xf9401988
.word 0x39401508
.word 0x7200011f
b.NE Label_118
.word 0xd2800049
.word 0xf2ffffe9
.word 0xf85d83b9
.word 0xea09033f
b.NE Label_117
Label_118:
.word 0xf85d83b9
.word 0xaa1903e0
b Label_119
Label_117:
.word 0xf1000b3f
b.EQ Label_120
.word 0xf1004b3f
b.NE Label_121
Label_120:
.word 0xf9406660
b Label_122
Label_121:
.word 0xf85b83b1
.word 0xf9002234
.word 0xaa1903e1
.word 0xaa1303e0
.word 0xa9bf7ffe
bl _JS_ToObject_GC
.word 0xa8c17ffe
.word 0xf102081f
b.NE Label_123
.word 0x910006d6
.word 0xf85b83b1
.word 0xf9002234
b __exception_handler_entry
Label_123:
Label_122:
.word 0xb9414269
cbz w9, Label_124
.word 0xf8008680
.word 0xf8008681
.word 0xb1000ac8
.word 0xf85e83ac
.word 0xf9401989
.word 0xaa0903e2
.word 0xaa0803e1
.word 0xaa1303e0
.word 0xa9bf7ffe
bl _DebuggerCallEachOp
.word 0xa8c17ffe
.word 0xf85f8e81
.word 0xf85f8e80
Label_124:
.word 0x38401ec8
.word 0x9103c908
.word 0xf8685aa9
.word 0xd61f0120
Label_119:
.word 0xb9414269
cbz w9, Label_125
.word 0xf8008680
.word 0xf8008681
.word 0xb1000ac8
.word 0xf85e83ac
.word 0xf9401989
.word 0xaa0903e2
.word 0xaa0803e1
.word 0xaa1303e0
.word 0xa9bf7ffe
bl _DebuggerCallEachOp
.word 0xa8c17ffe
.word 0xf85f8e81
.word 0xf85f8e80
Label_125:
.word 0x38401ec8
.word 0x9103c908
.word 0xf8685aa9
.word 0xd61f0120
.global _dispatch_table_2_8
_dispatch_table_2_8:
.word 0xa8810680
.word 0xf85b83b1
.word 0xf9002234
.global _dispatch_table_0_8
_dispatch_table_0_8:
.word 0xf85e83ac
.word 0xf9401988
.word 0x39401508
.word 0x7200011f
b.NE Label_127
.word 0xd2800049
.word 0xf2ffffe9
.word 0xf85d83b9
.word 0xea09033f
b.NE Label_126
Label_127:
.word 0xf85d83b9
.word 0xaa1903e0
b Label_128
Label_126:
.word 0xf1000b3f
b.EQ Label_129
.word 0xf1004b3f
b.NE Label_130
Label_129:
.word 0xf9406660
b Label_131
Label_130:
.word 0xf85b83b1
.word 0xf9002234
.word 0xaa1903e1
.word 0xaa1303e0
.word 0xa9bf7ffe
bl _JS_ToObject_GC
.word 0xa8c17ffe
.word 0xf102081f
b.NE Label_132
.word 0x910006d6
.word 0xf85b83b1
.word 0xf9002234
b __exception_handler_entry
Label_132:
Label_131:
.word 0xb9414269
cbz w9, Label_133
.word 0xf8008680
.word 0xf8008681
.word 0xb1000ac8
.word 0xf85e83ac
.word 0xf9401989
.word 0xaa0903e2
.word 0xaa0803e1
.word 0xaa1303e0
.word 0xa9bf7ffe
bl _DebuggerCallEachOp
.word 0xa8c17ffe
.word 0xf85f8e81
.word 0xf85f8e80
Label_133:
.word 0x38401ec8
.word 0x9103c908
.word 0xf8685aa9
.word 0xd61f0120
Label_128:
.word 0xb9414269
cbz w9, Label_134
.word 0xf8008680
.word 0xf8008681
.word 0xb1000ac8
.word 0xf85e83ac
.word 0xf9401989
.word 0xaa0903e2
.word 0xaa0803e1
.word 0xaa1303e0
.word 0xa9bf7ffe
bl _DebuggerCallEachOp
.word 0xa8c17ffe
.word 0xf85f8e81
.word 0xf85f8e80
Label_134:
.word 0x38401ec8
.word 0x9103c908
.word 0xf8685aa9
.word 0xd61f0120
.global _dispatch_table_0_9
_dispatch_table_0_9:
.word 0xb27f07e0
.word 0xb9414269
cbz w9, Label_135
.word 0xf8008680
.word 0xf8008681
.word 0xb1000ac8
.word 0xf85e83ac
.word 0xf9401989
.word 0xaa0903e2
.word 0xaa0803e1
.word 0xaa1303e0
.word 0xa9bf7ffe
bl _DebuggerCallEachOp
.word 0xa8c17ffe
.word 0xf85f8e81
.word 0xf85f8e80
Label_135:
.word 0x38401ec8
.word 0x9103c908
.word 0xf8685aa9
.word 0xd61f0120
.global _dispatch_table_1_9
_dispatch_table_1_9:
.word 0xb27f07e1
.word 0xb9414269
cbz w9, Label_136
.word 0xf8008680
.word 0xf8008681
.word 0xb1000ac8
.word 0xf85e83ac
.word 0xf9401989
.word 0xaa0903e2
.word 0xaa0803e1
.word 0xaa1303e0
.word 0xa9bf7ffe
bl _DebuggerCallEachOp
.word 0xa8c17ffe
.word 0xf85f8e81
.word 0xf85f8e80
Label_136:
.word 0x38401ec8
.word 0x91079108
.word 0xf8685aa9
.word 0xd61f0120
.global _dispatch_table_2_9
_dispatch_table_2_9:
.word 0xf8008680
.word 0xaa0103e0
.word 0xb27f07e1
.word 0xb9414269
cbz w9, Label_137
.word 0xf8008680
.word 0xf8008681
.word 0xb1000ac8
.word 0xf85e83ac
.word 0xf9401989
.word 0xaa0903e2
.word 0xaa0803e1
.word 0xaa1303e0
.word 0xa9bf7ffe
bl _DebuggerCallEachOp
.word 0xa8c17ffe
.word 0xf85f8e81
.word 0xf85f8e80
Label_137:
.word 0x38401ec8
.word 0x91079108
.word 0xf8685aa9
.word 0xd61f0120
.global _dispatch_table_0_10
_dispatch_table_0_10:
.word 0xb2400be0
.word 0xb9414269
cbz w9, Label_138
.word 0xf8008680
.word 0xf8008681
.word 0xb1000ac8
.word 0xf85e83ac
.word 0xf9401989
.word 0xaa0903e2
.word 0xaa0803e1
.word 0xaa1303e0
.word 0xa9bf7ffe
bl _DebuggerCallEachOp
.word 0xa8c17ffe
.word 0xf85f8e81
.word 0xf85f8e80
Label_138:
.word 0x38401ec8
.word 0x9103c908
.word 0xf8685aa9
.word 0xd61f0120
.global _dispatch_table_1_10
_dispatch_table_1_10:
.word 0xb2400be1
.word 0xb9414269
cbz w9, Label_139
.word 0xf8008680
.word 0xf8008681
.word 0xb1000ac8
.word 0xf85e83ac
.word 0xf9401989
.word 0xaa0903e2
.word 0xaa0803e1
.word 0xaa1303e0
.word 0xa9bf7ffe
bl _DebuggerCallEachOp
.word 0xa8c17ffe
.word 0xf85f8e81
.word 0xf85f8e80
Label_139:
.word 0x38401ec8
.word 0x91079108
.word 0xf8685aa9
.word 0xd61f0120
.global _dispatch_table_2_10
_dispatch_table_2_10:
.word 0xf8008680
.word 0xaa0103e0
.word 0xb2400be1
.word 0xb9414269
cbz w9, Label_140
.word 0xf8008680
.word 0xf8008681
.word 0xb1000ac8
.word 0xf85e83ac
.word 0xf9401989
.word 0xaa0903e2
.word 0xaa0803e1
.word 0xaa1303e0
.word 0xa9bf7ffe
bl _DebuggerCallEachOp
.word 0xa8c17ffe
.word 0xf85f8e81
.word 0xf85f8e80
Label_140:
.word 0x38401ec8
.word 0x91079108
.word 0xf8685aa9
.word 0xd61f0120
.global _dispatch_table_0_11
_dispatch_table_0_11:
.word 0xf85b83b1
.word 0xf9002234
.word 0xaa1303e0
.word 0xa9bf7ffe
bl _PRIM_JS_NewObject_GC
.word 0xa8c17ffe
.word 0xf102081f
b.NE Label_141
.word 0x910006d6
.word 0xf85b83b1
.word 0xf9002234
b __exception_handler_entry
Label_141:
.word 0xb9414269
cbz w9, Label_142
.word 0xf8008680
.word 0xf8008681
.word 0xb1000ac8
.word 0xf85e83ac
.word 0xf9401989
.word 0xaa0903e2
.word 0xaa0803e1
.word 0xaa1303e0
.word 0xa9bf7ffe
bl _DebuggerCallEachOp
.word 0xa8c17ffe
.word 0xf85f8e81
.word 0xf85f8e80
Label_142:
.word 0x38401ec8
.word 0x9103c908
.word 0xf8685aa9
.word 0xd61f0120
.global _dispatch_table_1_11
_dispatch_table_1_11:
.word 0xf8008680
.word 0xf85b83b1
.word 0xf9002234
.word 0xaa1303e0
.word 0xa9bf7ffe
bl _PRIM_JS_NewObject_GC
.word 0xa8c17ffe
.word 0xf102081f
b.NE Label_143
.word 0x910006d6
.word 0xf85b83b1
.word 0xf9002234
b __exception_handler_entry
Label_143:
.word 0xaa0003e1
.word 0xf85f8e80
.word 0xb9414269
cbz w9, Label_144
.word 0xf8008680
.word 0xf8008681
.word 0xb1000ac8
.word 0xf85e83ac
.word 0xf9401989
.word 0xaa0903e2
.word 0xaa0803e1
.word 0xaa1303e0
.word 0xa9bf7ffe
bl _DebuggerCallEachOp
.word 0xa8c17ffe
.word 0xf85f8e81
.word 0xf85f8e80
Label_144:
.word 0x38401ec8
.word 0x91079108
.word 0xf8685aa9
.word 0xd61f0120
.global _dispatch_table_2_11
_dispatch_table_2_11:
.word 0xa8810680
.word 0xf85b83b1
.word 0xf9002234
.word 0xaa1303e0
.word 0xa9bf7ffe
bl _PRIM_JS_NewObject_GC
.word 0xa8c17ffe
.word 0xf102081f
b.NE Label_145
.word 0x910006d6
.word 0xf85b83b1
.word 0xf9002234
b __exception_handler_entry
Label_145:
.word 0xaa0003e1
.word 0xf85f8e80
.word 0xb9414269
cbz w9, Label_146
.word 0xf8008680
.word 0xf8008681
.word 0xb1000ac8
.word 0xf85e83ac
.word 0xf9401989
.word 0xaa0903e2
.word 0xaa0803e1
.word 0xaa1303e0
.word 0xa9bf7ffe
bl _DebuggerCallEachOp
.word 0xa8c17ffe
.word 0xf85f8e81
.word 0xf85f8e80
Label_146:
.word 0x38401ec8
.word 0x91079108
.word 0xf8685aa9
.word 0xd61f0120
.global _dispatch_table_1_12
_dispatch_table_1_12:
.word 0xf8008680
.word 0xf85b83b1
.word 0xf9002234
.word 0x394006c8
.word 0xf85e03ae
.word 0xf100011f
b.NE Label_147
.word 0xf85883a2
.word 0xf85b83b1
.word 0xf9002234
.word 0xaa0e03e1
.word 0xaa1303e0
.word 0xa9bf7ffe
bl _js_build_arguments_gc
.word 0xa8c17ffe
.word 0xf102081f
b.NE Label_154
.word 0x91000ad6
.word 0xf85b83b1
.word 0xf9002234
b __exception_handler_entry
Label_154:
b Label_153
Label_147:
.word 0xf100051f
b.NE Label_148
.word 0xf85e83ac
.word 0xf9401989
.word 0x79405129
.word 0xeb0e013f
b.LT Label_156
Label_155:
.word 0xaa0e03e9
Label_156:
.word 0xf85b83b1
.word 0xf85883a2
.word 0xf9002234
.word 0xaa0903e4
.word 0xaa1103e3
.word 0xaa0e03e1
.word 0xaa1303e0
.word 0xa9bf7ffe
bl _js_build_mapped_arguments_gc
.word 0xa8c17ffe
.word 0xf102081f
b.NE Label_157
.word 0x91000ad6
.word 0xf85b83b1
.word 0xf9002234
b __exception_handler_entry
Label_157:
b Label_153
Label_148:
.word 0xf100091f
b.NE Label_149
.word 0xf85e83a0
b Label_153
Label_149:
.word 0xf1000d1f
b.NE Label_150
.word 0xf85d03af
.word 0xaa0f03e0
b Label_153
Label_150:
.word 0xf100111f
b.NE Label_151
.word 0xf85e83ac
.word 0xf9402189
cbz x9, Label_158
.word 0xaa0903e0
b Label_159
Label_158:
.word 0xd2800240
Label_159:
b Label_153
Label_151:
.word 0xf100151f
b.NE Label_152
.word 0xb27f03e9
.word 0xf85b83b1
.word 0xf9002234
.word 0xaa0903e1
.word 0xaa1303e0
.word 0xa9bf7ffe
bl _LEPUS_NewObjectProto
.word 0xa8c17ffe
.word 0xf102081f
b.NE Label_160
.word 0x91000ad6
.word 0xf85b83b1
.word 0xf9002234
b __exception_handler_entry
Label_160:
b Label_153
Label_152:
Label_153:
.word 0xb9414269
cbz w9, Label_161
.word 0xf8008680
.word 0xf8008681
.word 0xb1000ec8
.word 0xf85e83ac
.word 0xf9401989
.word 0xaa0903e2
.word 0xaa0803e1
.word 0xaa1303e0
.word 0xa9bf7ffe
bl _DebuggerCallEachOp
.word 0xa8c17ffe
.word 0xf85f8e81
.word 0xf85f8e80
Label_161:
.word 0x38402ec8
.word 0x9103c908
.word 0xf8685aa9
.word 0xd61f0120
.global _dispatch_table_2_12
_dispatch_table_2_12:
.word 0xa8810680
.word 0xf85b83b1
.word 0xf9002234
.global _dispatch_table_0_12
_dispatch_table_0_12:
.word 0x394006c8
.word 0xf85e03ae
.word 0xf100011f
b.NE Label_162
.word 0xf85883a2
.word 0xf85b83b1
.word 0xf9002234
.word 0xaa0e03e1
.word 0xaa1303e0
.word 0xa9bf7ffe
bl _js_build_arguments_gc
.word 0xa8c17ffe
.word 0xf102081f
b.NE Label_169
.word 0x91000ad6
.word 0xf85b83b1
.word 0xf9002234
b __exception_handler_entry
Label_169:
b Label_168
Label_162:
.word 0xf100051f
b.NE Label_163
.word 0xf85e83ac
.word 0xf9401989
.word 0x79405129
.word 0xeb0e013f
b.LT Label_171
Label_170:
.word 0xaa0e03e9
Label_171:
.word 0xf85b83b1
.word 0xf85883a2
.word 0xf9002234
.word 0xaa0903e4
.word 0xaa1103e3
.word 0xaa0e03e1
.word 0xaa1303e0
.word 0xa9bf7ffe
bl _js_build_mapped_arguments_gc
.word 0xa8c17ffe
.word 0xf102081f
b.NE Label_172
.word 0x91000ad6
.word 0xf85b83b1
.word 0xf9002234
b __exception_handler_entry
Label_172:
b Label_168
Label_163:
.word 0xf100091f
b.NE Label_164
.word 0xf85e83a0
b Label_168
Label_164:
.word 0xf1000d1f
b.NE Label_165
.word 0xf85d03af
.word 0xaa0f03e0
b Label_168
Label_165:
.word 0xf100111f
b.NE Label_166
.word 0xf85e83ac
.word 0xf9402189
cbz x9, Label_173
.word 0xaa0903e0
b Label_174
Label_173:
.word 0xd2800240
Label_174:
b Label_168
Label_166:
.word 0xf100151f
b.NE Label_167
.word 0xb27f03e9
.word 0xf85b83b1
.word 0xf9002234
.word 0xaa0903e1
.word 0xaa1303e0
.word 0xa9bf7ffe
bl _LEPUS_NewObjectProto
.word 0xa8c17ffe
.word 0xf102081f
b.NE Label_175
.word 0x91000ad6
.word 0xf85b83b1
.word 0xf9002234
b __exception_handler_entry
Label_175:
b Label_168
Label_167:
Label_168:
.word 0xb9414269
cbz w9, Label_176
.word 0xf8008680
.word 0xf8008681
.word 0xb1000ec8
.word 0xf85e83ac
.word 0xf9401989
.word 0xaa0903e2
.word 0xaa0803e1
.word 0xaa1303e0
.word 0xa9bf7ffe
bl _DebuggerCallEachOp
.word 0xa8c17ffe
.word 0xf85f8e81
.word 0xf85f8e80
Label_176:
.word 0x38402ec8
.word 0x9103c908
.word 0xf8685aa9
.word 0xd61f0120
.global _dispatch_table_0_13
_dispatch_table_0_13:
.word 0xf85e03ae
.word 0xf85b83b1
.word 0xf9002234
.word 0x784012c1
.word 0xf85883a3
.word 0xaa0e03e2
.word 0xaa1303e0
.word 0xa9bf7ffe
bl _js_build_rest_gc
.word 0xa8c17ffe
.word 0xf102081f
b.NE Label_177
.word 0x91000ed6
.word 0xf85b83b1
.word 0xf9002234
b __exception_handler_entry
Label_177:
.word 0xb9414269
cbz w9, Label_178
.word 0xf8008680
.word 0xf8008681
.word 0xb10012c8
.word 0xf85e83ac
.word 0xf9401989
.word 0xaa0903e2
.word 0xaa0803e1
.word 0xaa1303e0
.word 0xa9bf7ffe
bl _DebuggerCallEachOp
.word 0xa8c17ffe
.word 0xf85f8e81
.word 0xf85f8e80
Label_178:
.word 0x38403ec8
.word 0x9103c908
.word 0xf8685aa9
.word 0xd61f0120
.global _dispatch_table_1_13
_dispatch_table_1_13:
.word 0xf85e03ae
.word 0xf8008680
.word 0xf85b83b1
.word 0xf9002234
.word 0x784012c1
.word 0xf85883a3
.word 0xaa0e03e2
.word 0xaa1303e0
.word 0xa9bf7ffe
bl _js_build_rest_gc
.word 0xa8c17ffe
.word 0xf102081f
b.NE Label_179
.word 0x91000ed6
.word 0xf85b83b1
.word 0xf9002234
b __exception_handler_entry
Label_179:
.word 0xaa0003e1
.word 0xf85f8e80
.word 0xb9414269
cbz w9, Label_180
.word 0xf8008680
.word 0xf8008681
.word 0xb10012c8
.word 0xf85e83ac
.word 0xf9401989
.word 0xaa0903e2
.word 0xaa0803e1
.word 0xaa1303e0
.word 0xa9bf7ffe
bl _DebuggerCallEachOp
.word 0xa8c17ffe
.word 0xf85f8e81
.word 0xf85f8e80
Label_180:
.word 0x38403ec8
.word 0x91079108
.word 0xf8685aa9
.word 0xd61f0120
.global _dispatch_table_2_13
_dispatch_table_2_13:
.word 0xf85e03ae
.word 0xa8810680
.word 0xf85b83b1
.word 0xf9002234
.word 0x784012c1
.word 0xf85883a3
.word 0xaa0e03e2
.word 0xaa1303e0
.word 0xa9bf7ffe
bl _js_build_rest_gc
.word 0xa8c17ffe
.word 0xf102081f
b.NE Label_181
.word 0x91000ed6
.word 0xf85b83b1
.word 0xf9002234
b __exception_handler_entry
Label_181:
.word 0xaa0003e1
.word 0xf85f8e80
.word 0xb9414269
cbz w9, Label_182
.word 0xf8008680
.word 0xf8008681
.word 0xb10012c8
.word 0xf85e83ac
.word 0xf9401989
.word 0xaa0903e2
.word 0xaa0803e1
.word 0xaa1303e0
.word 0xa9bf7ffe
bl _DebuggerCallEachOp
.word 0xa8c17ffe
.word 0xf85f8e81
.word 0xf85f8e80
Label_182:
.word 0x38403ec8
.word 0x91079108
.word 0xf8685aa9
.word 0xd61f0120
.global _dispatch_table_0_14
_dispatch_table_0_14:
.word 0xf85f8e80
.word 0xb9414269
cbz w9, Label_183
.word 0xf8008680
.word 0xf8008681
.word 0xb1000ac8
.word 0xf85e83ac
.word 0xf9401989
.word 0xaa0903e2
.word 0xaa0803e1
.word 0xaa1303e0
.word 0xa9bf7ffe
bl _DebuggerCallEachOp
.word 0xa8c17ffe
.word 0xf85f8e81
.word 0xf85f8e80
Label_183:
.word 0x38401ec8
.word 0x91000108
.word 0xf8685aa9
.word 0xd61f0120
.global _dispatch_table_1_14
_dispatch_table_1_14:
.word 0xb9414269
cbz w9, Label_184
.word 0xf8008680
.word 0xf8008681
.word 0xb1000ac8
.word 0xf85e83ac
.word 0xf9401989
.word 0xaa0903e2
.word 0xaa0803e1
.word 0xaa1303e0
.word 0xa9bf7ffe
bl _DebuggerCallEachOp
.word 0xa8c17ffe
.word 0xf85f8e81
.word 0xf85f8e80
Label_184:
.word 0x38401ec8
.word 0x91000108
.word 0xf8685aa9
.word 0xd61f0120
.global _dispatch_table_2_14
_dispatch_table_2_14:
.word 0xb9414269
cbz w9, Label_185
.word 0xf8008680
.word 0xf8008681
.word 0xb1000ac8
.word 0xf85e83ac
.word 0xf9401989
.word 0xaa0903e2
.word 0xaa0803e1
.word 0xaa1303e0
.word 0xa9bf7ffe
bl _DebuggerCallEachOp
.word 0xa8c17ffe
.word 0xf85f8e81
.word 0xf85f8e80
Label_185:
.word 0x38401ec8
.word 0x9103c908
.word 0xf8685aa9
.word 0xd61f0120
.global _dispatch_table_0_15
_dispatch_table_0_15:
.word 0xa9ff0680
.word 0xaa0103e0
.word 0xb9414269
cbz w9, Label_186
.word 0xf8008680
.word 0xf8008681
.word 0xb1000ac8
.word 0xf85e83ac
.word 0xf9401989
.word 0xaa0903e2
.word 0xaa0803e1
.word 0xaa1303e0
.word 0xa9bf7ffe
bl _DebuggerCallEachOp
.word 0xa8c17ffe
.word 0xf85f8e81
.word 0xf85f8e80
Label_186:
.word 0x38401ec8
.word 0x9103c908
.word 0xf8685aa9
.word 0xd61f0120
.global _dispatch_table_1_15
_dispatch_table_1_15:
.word 0xaa0003e1
.word 0xf85f8e80
.global _dispatch_table_2_15
_dispatch_table_2_15:
.word 0xaa0103e0
.word 0xb9414269
cbz w9, Label_187
.word 0xf8008680
.word 0xf8008681
.word 0xb1000ac8
.word 0xf85e83ac
.word 0xf9401989
.word 0xaa0903e2
.word 0xaa0803e1
.word 0xaa1303e0
.word 0xa9bf7ffe
bl _DebuggerCallEachOp
.word 0xa8c17ffe
.word 0xf85f8e81
.word 0xf85f8e80
Label_187:
.word 0x38401ec8
.word 0x9103c908
.word 0xf8685aa9
.word 0xd61f0120
.global _dispatch_table_0_16
_dispatch_table_0_16:
.word 0xa9ff0680
.word 0xf85f8e88
.word 0xf8008680
.word 0xf8008681
.word 0xb9414269
cbz w9, Label_188
.word 0xf8008680
.word 0xf8008681
.word 0xb1000ac8
.word 0xf85e83ac
.word 0xf9401989
.word 0xaa0903e2
.word 0xaa0803e1
.word 0xaa1303e0
.word 0xa9bf7ffe
bl _DebuggerCallEachOp
.word 0xa8c17ffe
.word 0xf85f8e81
.word 0xf85f8e80
Label_188:
.word 0x38401ec8
.word 0x91000108
.word 0xf8685aa9
.word 0xd61f0120
.global _dispatch_table_1_16
_dispatch_table_1_16:
.word 0xaa0003e1
.word 0xf85f8e80
.global _dispatch_table_2_16
_dispatch_table_2_16:
.word 0xf85f8e88
.word 0xf8008680
.word 0xf8008681
.word 0xb9414269
cbz w9, Label_189
.word 0xf8008680
.word 0xf8008681
.word 0xb1000ac8
.word 0xf85e83ac
.word 0xf9401989
.word 0xaa0903e2
.word 0xaa0803e1
.word 0xaa1303e0
.word 0xa9bf7ffe
bl _DebuggerCallEachOp
.word 0xa8c17ffe
.word 0xf85f8e81
.word 0xf85f8e80
Label_189:
.word 0x38401ec8
.word 0x91000108
.word 0xf8685aa9
.word 0xd61f0120
.global _dispatch_table_2_17
_dispatch_table_2_17:
.word 0xf8008680
.word 0xaa0103e0
.word 0xf85b83b1
.word 0xf9002234
.word 0xaa0003e1
.word 0xb9414269
cbz w9, Label_190
.word 0xf8008680
.word 0xf8008681
.word 0xb1000ac8
.word 0xf85e83ac
.word 0xf9401989
.word 0xaa0903e2
.word 0xaa0803e1
.word 0xaa1303e0
.word 0xa9bf7ffe
bl _DebuggerCallEachOp
.word 0xa8c17ffe
.word 0xf85f8e81
.word 0xf85f8e80
Label_190:
.word 0x38401ec8
.word 0x91079108
.word 0xf8685aa9
.word 0xd61f0120
.global _dispatch_table_0_17
_dispatch_table_0_17:
.word 0xf85f8e80
.global _dispatch_table_1_17
_dispatch_table_1_17:
.word 0xaa0003e1
.word 0xb9414269
cbz w9, Label_191
.word 0xf8008680
.word 0xf8008681
.word 0xb1000ac8
.word 0xf85e83ac
.word 0xf9401989
.word 0xaa0903e2
.word 0xaa0803e1
.word 0xaa1303e0
.word 0xa9bf7ffe
bl _DebuggerCallEachOp
.word 0xa8c17ffe
.word 0xf85f8e81
.word 0xf85f8e80
Label_191:
.word 0x38401ec8
.word 0x91079108
.word 0xf8685aa9
.word 0xd61f0120
.global _dispatch_table_0_18
_dispatch_table_0_18:
.word 0xa9ff0680
.word 0xf8008680
.word 0xb9414269
cbz w9, Label_192
.word 0xf8008680
.word 0xf8008681
.word 0xb1000ac8
.word 0xf85e83ac
.word 0xf9401989
.word 0xaa0903e2
.word 0xaa0803e1
.word 0xaa1303e0
.word 0xa9bf7ffe
bl _DebuggerCallEachOp
.word 0xa8c17ffe
.word 0xf85f8e81
.word 0xf85f8e80
Label_192:
.word 0x38401ec8
.word 0x91079108
.word 0xf8685aa9
.word 0xd61f0120
.global _dispatch_table_1_18
_dispatch_table_1_18:
.word 0xaa0003e1
.word 0xf85f8e80
.global _dispatch_table_2_18
_dispatch_table_2_18:
.word 0xf8008680
.word 0xb9414269
cbz w9, Label_193
.word 0xf8008680
.word 0xf8008681
.word 0xb1000ac8
.word 0xf85e83ac
.word 0xf9401989
.word 0xaa0903e2
.word 0xaa0803e1
.word 0xaa1303e0
.word 0xa9bf7ffe
bl _DebuggerCallEachOp
.word 0xa8c17ffe
.word 0xf85f8e81
.word 0xf85f8e80
Label_193:
.word 0x38401ec8
.word 0x91079108
.word 0xf8685aa9
.word 0xd61f0120
.global _dispatch_table_0_19
_dispatch_table_0_19:
.word 0xa9ff0680
.word 0xf8008680
.word 0xf8008681
.word 0xb9414269
cbz w9, Label_194
.word 0xf8008680
.word 0xf8008681
.word 0xb1000ac8
.word 0xf85e83ac
.word 0xf9401989
.word 0xaa0903e2
.word 0xaa0803e1
.word 0xaa1303e0
.word 0xa9bf7ffe
bl _DebuggerCallEachOp
.word 0xa8c17ffe
.word 0xf85f8e81
.word 0xf85f8e80
Label_194:
.word 0x38401ec8
.word 0x91079108
.word 0xf8685aa9
.word 0xd61f0120
.global _dispatch_table_1_19
_dispatch_table_1_19:
.word 0xaa0003e1
.word 0xf85f8e80
.global _dispatch_table_2_19
_dispatch_table_2_19:
.word 0xf8008680
.word 0xf8008681
.word 0xb9414269
cbz w9, Label_195
.word 0xf8008680
.word 0xf8008681
.word 0xb1000ac8
.word 0xf85e83ac
.word 0xf9401989
.word 0xaa0903e2
.word 0xaa0803e1
.word 0xaa1303e0
.word 0xa9bf7ffe
bl _DebuggerCallEachOp
.word 0xa8c17ffe
.word 0xf85f8e81
.word 0xf85f8e80
Label_195:
.word 0x38401ec8
.word 0x91079108
.word 0xf8685aa9
.word 0xd61f0120
.global _dispatch_table_1_20
_dispatch_table_1_20:
.word 0xf8008680
.word 0xf85b83b1
.word 0xf9002234
.word 0xf85e8288
.word 0xf85f0280
.word 0xf85f8281
.word 0xf8008688
.word 0xb9414269
cbz w9, Label_196
.word 0xf8008680
.word 0xf8008681
.word 0xb1000ac8
.word 0xf85e83ac
.word 0xf9401989
.word 0xaa0903e2
.word 0xaa0803e1
.word 0xaa1303e0
.word 0xa9bf7ffe
bl _DebuggerCallEachOp
.word 0xa8c17ffe
.word 0xf85f8e81
.word 0xf85f8e80
Label_196:
.word 0x38401ec8
.word 0x91079108
.word 0xf8685aa9
.word 0xd61f0120
.global _dispatch_table_2_20
_dispatch_table_2_20:
.word 0xa8810680
.word 0xf85b83b1
.word 0xf9002234
.global _dispatch_table_0_20
_dispatch_table_0_20:
.word 0xf85e8288
.word 0xf85f0280
.word 0xf85f8281
.word 0xf8008688
.word 0xb9414269
cbz w9, Label_197
.word 0xf8008680
.word 0xf8008681
.word 0xb1000ac8
.word 0xf85e83ac
.word 0xf9401989
.word 0xaa0903e2
.word 0xaa0803e1
.word 0xaa1303e0
.word 0xa9bf7ffe
bl _DebuggerCallEachOp
.word 0xa8c17ffe
.word 0xf85f8e81
.word 0xf85f8e80
Label_197:
.word 0x38401ec8
.word 0x91079108
.word 0xf8685aa9
.word 0xd61f0120
.global _dispatch_table_0_21
_dispatch_table_0_21:
.word 0xf85f8280
.word 0xf85f0281
.word 0xf81f8281
.word 0xf81f0280
.word 0xb9414269
cbz w9, Label_198
.word 0xf8008680
.word 0xf8008681
.word 0xb1000ac8
.word 0xf85e83ac
.word 0xf9401989
.word 0xaa0903e2
.word 0xaa0803e1
.word 0xaa1303e0
.word 0xa9bf7ffe
bl _DebuggerCallEachOp
.word 0xa8c17ffe
.word 0xf85f8e81
.word 0xf85f8e80
Label_198:
.word 0x38401ec8
.word 0x9103c908
.word 0xf8685aa9
.word 0xd61f0120
.global _dispatch_table_1_21
_dispatch_table_1_21:
.word 0xaa0003e1
.word 0xf85f8280
.word 0xf81f8281
.word 0xb9414269
cbz w9, Label_199
.word 0xf8008680
.word 0xf8008681
.word 0xb1000ac8
.word 0xf85e83ac
.word 0xf9401989
.word 0xaa0903e2
.word 0xaa0803e1
.word 0xaa1303e0
.word 0xa9bf7ffe
bl _DebuggerCallEachOp
.word 0xa8c17ffe
.word 0xf85f8e81
.word 0xf85f8e80
Label_199:
.word 0x38401ec8
.word 0x91079108
.word 0xf8685aa9
.word 0xd61f0120
.global _dispatch_table_2_21
_dispatch_table_2_21:
.word 0xf8008681
.word 0xb9414269
cbz w9, Label_200
.word 0xf8008680
.word 0xf8008681
.word 0xb1000ac8
.word 0xf85e83ac
.word 0xf9401989
.word 0xaa0903e2
.word 0xaa0803e1
.word 0xaa1303e0
.word 0xa9bf7ffe
bl _DebuggerCallEachOp
.word 0xa8c17ffe
.word 0xf85f8e81
.word 0xf85f8e80
Label_200:
.word 0x38401ec8
.word 0x91079108
.word 0xf8685aa9
.word 0xd61f0120
.global _dispatch_table_2_22
_dispatch_table_2_22:
.word 0xf8008680
.word 0xaa0103e0
.word 0xf85b83b1
.word 0xf9002234
.word 0xaa0003e8
.word 0xf85f8e80
.word 0xf85f8e81
.word 0xf8008688
.word 0xf8008681
.word 0xaa0803e1
.word 0xb9414269
cbz w9, Label_201
.word 0xf8008680
.word 0xf8008681
.word 0xb1000ac8
.word 0xf85e83ac
.word 0xf9401989
.word 0xaa0903e2
.word 0xaa0803e1
.word 0xaa1303e0
.word 0xa9bf7ffe
bl _DebuggerCallEachOp
.word 0xa8c17ffe
.word 0xf85f8e81
.word 0xf85f8e80
Label_201:
.word 0x38401ec8
.word 0x91079108
.word 0xf8685aa9
.word 0xd61f0120
.global _dispatch_table_0_22
_dispatch_table_0_22:
.word 0xf85f8e80
.global _dispatch_table_1_22
_dispatch_table_1_22:
.word 0xaa0003e8
.word 0xf85f8e80
.word 0xf85f8e81
.word 0xf8008688
.word 0xf8008681
.word 0xaa0803e1
.word 0xb9414269
cbz w9, Label_202
.word 0xf8008680
.word 0xf8008681
.word 0xb1000ac8
.word 0xf85e83ac
.word 0xf9401989
.word 0xaa0903e2
.word 0xaa0803e1
.word 0xaa1303e0
.word 0xa9bf7ffe
bl _DebuggerCallEachOp
.word 0xa8c17ffe
.word 0xf85f8e81
.word 0xf85f8e80
Label_202:
.word 0x38401ec8
.word 0x91079108
.word 0xf8685aa9
.word 0xd61f0120
.global _dispatch_table_2_23
_dispatch_table_2_23:
.word 0xf8008680
.word 0xaa0103e0
.word 0xf85b83b1
.word 0xf9002234
.word 0xaa0003e8
.word 0xf85f8e80
.word 0xf85f8e81
.word 0xf85f8e89
.word 0xf8008688
.word 0xf8008689
.word 0xf8008681
.word 0xaa0803e1
.word 0xb9414269
cbz w9, Label_203
.word 0xf8008680
.word 0xf8008681
.word 0xb1000ac8
.word 0xf85e83ac
.word 0xf9401989
.word 0xaa0903e2
.word 0xaa0803e1
.word 0xaa1303e0
.word 0xa9bf7ffe
bl _DebuggerCallEachOp
.word 0xa8c17ffe
.word 0xf85f8e81
.word 0xf85f8e80
Label_203:
.word 0x38401ec8
.word 0x91079108
.word 0xf8685aa9
.word 0xd61f0120
.global _dispatch_table_0_23
_dispatch_table_0_23:
.word 0xf85f8e80
.global _dispatch_table_1_23
_dispatch_table_1_23:
.word 0xaa0003e8
.word 0xf85f8e80
.word 0xf85f8e81
.word 0xf85f8e89
.word 0xf8008688
.word 0xf8008689
.word 0xf8008681
.word 0xaa0803e1
.word 0xb9414269
cbz w9, Label_204
.word 0xf8008680
.word 0xf8008681
.word 0xb1000ac8
.word 0xf85e83ac
.word 0xf9401989
.word 0xaa0903e2
.word 0xaa0803e1
.word 0xaa1303e0
.word 0xa9bf7ffe
bl _DebuggerCallEachOp
.word 0xa8c17ffe
.word 0xf85f8e81
.word 0xf85f8e80
Label_204:
.word 0x38401ec8
.word 0x91079108
.word 0xf8685aa9
.word 0xd61f0120
.global _dispatch_table_0_24
_dispatch_table_0_24:
.word 0xa9ff0680
.word 0xaa0003e8
.word 0xf85f8e80
.word 0xf8008688
.word 0xb9414269
cbz w9, Label_205
.word 0xf8008680
.word 0xf8008681
.word 0xb1000ac8
.word 0xf85e83ac
.word 0xf9401989
.word 0xaa0903e2
.word 0xaa0803e1
.word 0xaa1303e0
.word 0xa9bf7ffe
bl _DebuggerCallEachOp
.word 0xa8c17ffe
.word 0xf85f8e81
.word 0xf85f8e80
Label_205:
.word 0x38401ec8
.word 0x91079108
.word 0xf8685aa9
.word 0xd61f0120
.global _dispatch_table_1_24
_dispatch_table_1_24:
.word 0xaa0003e1
.word 0xf85f8e80
.global _dispatch_table_2_24
_dispatch_table_2_24:
.word 0xaa0003e8
.word 0xf85f8e80
.word 0xf8008688
.word 0xb9414269
cbz w9, Label_206
.word 0xf8008680
.word 0xf8008681
.word 0xb1000ac8
.word 0xf85e83ac
.word 0xf9401989
.word 0xaa0903e2
.word 0xaa0803e1
.word 0xaa1303e0
.word 0xa9bf7ffe
bl _DebuggerCallEachOp
.word 0xa8c17ffe
.word 0xf85f8e81
.word 0xf85f8e80
Label_206:
.word 0x38401ec8
.word 0x91079108
.word 0xf8685aa9
.word 0xd61f0120
.global _dispatch_table_0_25
_dispatch_table_0_25:
.word 0xa9ff0680
.word 0xaa0003e8
.word 0xf85f8e80
.word 0xf85f8e89
.word 0xf8008688
.word 0xf8008689
.word 0xb9414269
cbz w9, Label_207
.word 0xf8008680
.word 0xf8008681
.word 0xb1000ac8
.word 0xf85e83ac
.word 0xf9401989
.word 0xaa0903e2
.word 0xaa0803e1
.word 0xaa1303e0
.word 0xa9bf7ffe
bl _DebuggerCallEachOp
.word 0xa8c17ffe
.word 0xf85f8e81
.word 0xf85f8e80
Label_207:
.word 0x38401ec8
.word 0x91079108
.word 0xf8685aa9
.word 0xd61f0120
.global _dispatch_table_1_25
_dispatch_table_1_25:
.word 0xaa0003e1
.word 0xf85f8e80
.global _dispatch_table_2_25
_dispatch_table_2_25:
.word 0xaa0003e8
.word 0xf85f8e80
.word 0xf85f8e89
.word 0xf8008688
.word 0xf8008689
.word 0xb9414269
cbz w9, Label_208
.word 0xf8008680
.word 0xf8008681
.word 0xb1000ac8
.word 0xf85e83ac
.word 0xf9401989
.word 0xaa0903e2
.word 0xaa0803e1
.word 0xaa1303e0
.word 0xa9bf7ffe
bl _DebuggerCallEachOp
.word 0xa8c17ffe
.word 0xf85f8e81
.word 0xf85f8e80
Label_208:
.word 0x38401ec8
.word 0x91079108
.word 0xf8685aa9
.word 0xd61f0120
.global _dispatch_table_0_26
_dispatch_table_0_26:
.word 0xa9ff0680
.word 0xaa0003e8
.word 0xf85f8e80
.word 0xf85f8e89
.word 0xf85f8e83
.word 0xf8008688
.word 0xf8008683
.word 0xf8008689
.word 0xb9414269
cbz w9, Label_209
.word 0xf8008680
.word 0xf8008681
.word 0xb1000ac8
.word 0xf85e83ac
.word 0xf9401989
.word 0xaa0903e2
.word 0xaa0803e1
.word 0xaa1303e0
.word 0xa9bf7ffe
bl _DebuggerCallEachOp
.word 0xa8c17ffe
.word 0xf85f8e81
.word 0xf85f8e80
Label_209:
.word 0x38401ec8
.word 0x91079108
.word 0xf8685aa9
.word 0xd61f0120
.global _dispatch_table_1_26
_dispatch_table_1_26:
.word 0xaa0003e1
.word 0xf85f8e80
.global _dispatch_table_2_26
_dispatch_table_2_26:
.word 0xaa0003e8
.word 0xf85f8e80
.word 0xf85f8e89
.word 0xf85f8e83
.word 0xf8008688
.word 0xf8008683
.word 0xf8008689
.word 0xb9414269
cbz w9, Label_210
.word 0xf8008680
.word 0xf8008681
.word 0xb1000ac8
.word 0xf85e83ac
.word 0xf9401989
.word 0xaa0903e2
.word 0xaa0803e1
.word 0xaa1303e0
.word 0xa9bf7ffe
bl _DebuggerCallEachOp
.word 0xa8c17ffe
.word 0xf85f8e81
.word 0xf85f8e80
Label_210:
.word 0x38401ec8
.word 0x91079108
.word 0xf8685aa9
.word 0xd61f0120
.global _dispatch_table_0_27
_dispatch_table_0_27:
.word 0xa9ff0680
.word 0xaa0003e8
.word 0xaa0103e0
.word 0xaa0803e1
.word 0xb9414269
cbz w9, Label_211
.word 0xf8008680
.word 0xf8008681
.word 0xb1000ac8
.word 0xf85e83ac
.word 0xf9401989
.word 0xaa0903e2
.word 0xaa0803e1
.word 0xaa1303e0
.word 0xa9bf7ffe
bl _DebuggerCallEachOp
.word 0xa8c17ffe
.word 0xf85f8e81
.word 0xf85f8e80
Label_211:
.word 0x38401ec8
.word 0x91079108
.word 0xf8685aa9
.word 0xd61f0120
.global _dispatch_table_1_27
_dispatch_table_1_27:
.word 0xaa0003e1
.word 0xf85f8e80
.global _dispatch_table_2_27
_dispatch_table_2_27:
.word 0xaa0003e8
.word 0xaa0103e0
.word 0xaa0803e1
.word 0xb9414269
cbz w9, Label_212
.word 0xf8008680
.word 0xf8008681
.word 0xb1000ac8
.word 0xf85e83ac
.word 0xf9401989
.word 0xaa0903e2
.word 0xaa0803e1
.word 0xaa1303e0
.word 0xa9bf7ffe
bl _DebuggerCallEachOp
.word 0xa8c17ffe
.word 0xf85f8e81
.word 0xf85f8e80
Label_212:
.word 0x38401ec8
.word 0x91079108
.word 0xf8685aa9
.word 0xd61f0120
.global _dispatch_table_0_28
_dispatch_table_0_28:
.word 0xa9ff0680
.word 0xaa0003e8
.word 0xaa0103e9
.word 0xf85f8e81
.word 0xf85f8e80
.word 0xf8008688
.word 0xf8008689
.word 0xb9414269
cbz w9, Label_213
.word 0xf8008680
.word 0xf8008681
.word 0xb1000ac8
.word 0xf85e83ac
.word 0xf9401989
.word 0xaa0903e2
.word 0xaa0803e1
.word 0xaa1303e0
.word 0xa9bf7ffe
bl _DebuggerCallEachOp
.word 0xa8c17ffe
.word 0xf85f8e81
.word 0xf85f8e80
Label_213:
.word 0x38401ec8
.word 0x91079108
.word 0xf8685aa9
.word 0xd61f0120
.global _dispatch_table_1_28
_dispatch_table_1_28:
.word 0xaa0003e1
.word 0xf85f8e80
.global _dispatch_table_2_28
_dispatch_table_2_28:
.word 0xaa0003e8
.word 0xaa0103e9
.word 0xf85f8e81
.word 0xf85f8e80
.word 0xf8008688
.word 0xf8008689
.word 0xb9414269
cbz w9, Label_214
.word 0xf8008680
.word 0xf8008681
.word 0xb1000ac8
.word 0xf85e83ac
.word 0xf9401989
.word 0xaa0903e2
.word 0xaa0803e1
.word 0xaa1303e0
.word 0xa9bf7ffe
bl _DebuggerCallEachOp
.word 0xa8c17ffe
.word 0xf85f8e81
.word 0xf85f8e80
Label_214:
.word 0x38401ec8
.word 0x91079108
.word 0xf8685aa9
.word 0xd61f0120
.global _dispatch_table_0_29
_dispatch_table_0_29:
.word 0xa9ff0680
.word 0xf85f8e88
.word 0xf8008680
.word 0xaa0103e0
.word 0xaa0803e1
.word 0xb9414269
cbz w9, Label_215
.word 0xf8008680
.word 0xf8008681
.word 0xb1000ac8
.word 0xf85e83ac
.word 0xf9401989
.word 0xaa0903e2
.word 0xaa0803e1
.word 0xaa1303e0
.word 0xa9bf7ffe
bl _DebuggerCallEachOp
.word 0xa8c17ffe
.word 0xf85f8e81
.word 0xf85f8e80
Label_215:
.word 0x38401ec8
.word 0x91079108
.word 0xf8685aa9
.word 0xd61f0120
.global _dispatch_table_1_29
_dispatch_table_1_29:
.word 0xaa0003e1
.word 0xf85f8e80
.global _dispatch_table_2_29
_dispatch_table_2_29:
.word 0xf85f8e88
.word 0xf8008680
.word 0xaa0103e0
.word 0xaa0803e1
.word 0xb9414269
cbz w9, Label_216
.word 0xf8008680
.word 0xf8008681
.word 0xb1000ac8
.word 0xf85e83ac
.word 0xf9401989
.word 0xaa0903e2
.word 0xaa0803e1
.word 0xaa1303e0
.word 0xa9bf7ffe
bl _DebuggerCallEachOp
.word 0xa8c17ffe
.word 0xf85f8e81
.word 0xf85f8e80
Label_216:
.word 0x38401ec8
.word 0x91079108
.word 0xf8685aa9
.word 0xd61f0120
.global _dispatch_table_0_30
_dispatch_table_0_30:
.word 0xa9ff0680
.word 0xf85f8e88
.word 0xf8008681
.word 0xaa0003e1
.word 0xaa0803e0
.word 0xb9414269
cbz w9, Label_217
.word 0xf8008680
.word 0xf8008681
.word 0xb1000ac8
.word 0xf85e83ac
.word 0xf9401989
.word 0xaa0903e2
.word 0xaa0803e1
.word 0xaa1303e0
.word 0xa9bf7ffe
bl _DebuggerCallEachOp
.word 0xa8c17ffe
.word 0xf85f8e81
.word 0xf85f8e80
Label_217:
.word 0x38401ec8
.word 0x91079108
.word 0xf8685aa9
.word 0xd61f0120
.global _dispatch_table_1_30
_dispatch_table_1_30:
.word 0xaa0003e1
.word 0xf85f8e80
.global _dispatch_table_2_30
_dispatch_table_2_30:
.word 0xf85f8e88
.word 0xf8008681
.word 0xaa0003e1
.word 0xaa0803e0
.word 0xb9414269
cbz w9, Label_218
.word 0xf8008680
.word 0xf8008681
.word 0xb1000ac8
.word 0xf85e83ac
.word 0xf9401989
.word 0xaa0903e2
.word 0xaa0803e1
.word 0xaa1303e0
.word 0xa9bf7ffe
bl _DebuggerCallEachOp
.word 0xa8c17ffe
.word 0xf85f8e81
.word 0xf85f8e80
Label_218:
.word 0x38401ec8
.word 0x91079108
.word 0xf8685aa9
.word 0xd61f0120
.global _dispatch_table_0_31
_dispatch_table_0_31:
.word 0xa9ff0680
.word 0xf85f8e88
.word 0xf85f8e89
.word 0xf8008688
.word 0xf8008680
.word 0xaa0103e0
.word 0xaa0903e1
.word 0xb9414269
cbz w9, Label_219
.word 0xf8008680
.word 0xf8008681
.word 0xb1000ac8
.word 0xf85e83ac
.word 0xf9401989
.word 0xaa0903e2
.word 0xaa0803e1
.word 0xaa1303e0
.word 0xa9bf7ffe
bl _DebuggerCallEachOp
.word 0xa8c17ffe
.word 0xf85f8e81
.word 0xf85f8e80
Label_219:
.word 0x38401ec8
.word 0x91079108
.word 0xf8685aa9
.word 0xd61f0120
.global _dispatch_table_1_31
_dispatch_table_1_31:
.word 0xaa0003e1
.word 0xf85f8e80
.global _dispatch_table_2_31
_dispatch_table_2_31:
.word 0xf85f8e88
.word 0xf85f8e89
.word 0xf8008688
.word 0xf8008680
.word 0xaa0103e0
.word 0xaa0903e1
.word 0xb9414269
cbz w9, Label_220
.word 0xf8008680
.word 0xf8008681
.word 0xb1000ac8
.word 0xf85e83ac
.word 0xf9401989
.word 0xaa0903e2
.word 0xaa0803e1
.word 0xaa1303e0
.word 0xa9bf7ffe
bl _DebuggerCallEachOp
.word 0xa8c17ffe
.word 0xf85f8e81
.word 0xf85f8e80
Label_220:
.word 0x38401ec8
.word 0x91079108
.word 0xf8685aa9
.word 0xd61f0120
.global _dispatch_table_0_32
_dispatch_table_0_32:
.word 0xa9ff0680
.word 0xf85f8e88
.word 0xf85f8e89
.word 0xf85f8e83
.word 0xf8008689
.word 0xf8008688
.word 0xf8008680
.word 0xaa0103e0
.word 0xaa0303e1
.word 0xb9414269
cbz w9, Label_221
.word 0xf8008680
.word 0xf8008681
.word 0xb1000ac8
.word 0xf85e83ac
.word 0xf9401989
.word 0xaa0903e2
.word 0xaa0803e1
.word 0xaa1303e0
.word 0xa9bf7ffe
bl _DebuggerCallEachOp
.word 0xa8c17ffe
.word 0xf85f8e81
.word 0xf85f8e80
Label_221:
.word 0x38401ec8
.word 0x91079108
.word 0xf8685aa9
.word 0xd61f0120
.global _dispatch_table_1_32
_dispatch_table_1_32:
.word 0xaa0003e1
.word 0xf85f8e80
.global _dispatch_table_2_32
_dispatch_table_2_32:
.word 0xf85f8e88
.word 0xf85f8e89
.word 0xf85f8e83
.word 0xf8008689
.word 0xf8008688
.word 0xf8008680
.word 0xaa0103e0
.word 0xaa0303e1
.word 0xb9414269
cbz w9, Label_222
.word 0xf8008680
.word 0xf8008681
.word 0xb1000ac8
.word 0xf85e83ac
.word 0xf9401989
.word 0xaa0903e2
.word 0xaa0803e1
.word 0xaa1303e0
.word 0xa9bf7ffe
bl _DebuggerCallEachOp
.word 0xa8c17ffe
.word 0xf85f8e81
.word 0xf85f8e80
Label_222:
.word 0x38401ec8
.word 0x91079108
.word 0xf8685aa9
.word 0xd61f0120
.global _dispatch_table_1_33
_dispatch_table_1_33:
.word 0xf8008680
.word 0xf85b83b1
.word 0xf9002234
.word 0xf85b83b1
.word 0x91000ec8
.word 0xf9001a28
.word 0x784012ce
.word 0xcb0e03e8
.word 0xd1000508
.word 0xf868da8f
.word 0xd1000508
.word 0xf868da8c
.word 0xf81983b6
.word 0x910009c8
.word 0xf81e03a8
.word 0xcb2e4e84
.word 0xd2800005
.word 0xf85b83b1
.word 0xf9002234
.word 0xaa0e03e3
.word 0xaa0f03e2
.word 0xaa0c03e1
.word 0xaa1303e0
.word 0xa9bf7ffe
bl _JS_CallConstructorInternal_GC
.word 0xa8c17ffe
.word 0xf102081f
b.NE Label_223
.word 0x91000ed6
.word 0xf85b83b1
.word 0xf9002234
b __exception_handler_entry
Label_223:
.word 0xaa0003f9
.word 0xf85e03ae
.word 0xaa0e03e8
.word 0xea08011f
b.EQ Label_224
Label_225:
.word 0xd1002294
.word 0xd1000508
cbnz x8, Label_225
Label_224:
.word 0xaa1903e0
.word 0xb9414269
cbz w9, Label_226
.word 0xf8008680
.word 0xf8008681
.word 0xb10012c8
.word 0xf85e83ac
.word 0xf9401989
.word 0xaa0903e2
.word 0xaa0803e1
.word 0xaa1303e0
.word 0xa9bf7ffe
bl _DebuggerCallEachOp
.word 0xa8c17ffe
.word 0xf85f8e81
.word 0xf85f8e80
Label_226:
.word 0x38403ec8
.word 0x9103c908
.word 0xf8685aa9
.word 0xd61f0120
.global _dispatch_table_2_33
_dispatch_table_2_33:
.word 0xa8810680
.word 0xf85b83b1
.word 0xf9002234
.global _dispatch_table_0_33
_dispatch_table_0_33:
.word 0xf85b83b1
.word 0x91000ec8
.word 0xf9001a28
.word 0x784012ce
.word 0xcb0e03e8
.word 0xd1000508
.word 0xf868da8f
.word 0xd1000508
.word 0xf868da8c
.word 0xf81983b6
.word 0x910009c8
.word 0xf81e03a8
.word 0xcb2e4e84
.word 0xd2800005
.word 0xf85b83b1
.word 0xf9002234
.word 0xaa0e03e3
.word 0xaa0f03e2
.word 0xaa0c03e1
.word 0xaa1303e0
.word 0xa9bf7ffe
bl _JS_CallConstructorInternal_GC
.word 0xa8c17ffe
.word 0xf102081f
b.NE Label_227
.word 0x91000ed6
.word 0xf85b83b1
.word 0xf9002234
b __exception_handler_entry
Label_227:
.word 0xaa0003f9
.word 0xf85e03ae
.word 0xaa0e03e8
.word 0xea08011f
b.EQ Label_228
Label_229:
.word 0xd1002294
.word 0xd1000508
cbnz x8, Label_229
Label_228:
.word 0xaa1903e0
.word 0xb9414269
cbz w9, Label_230
.word 0xf8008680
.word 0xf8008681
.word 0xb10012c8
.word 0xf85e83ac
.word 0xf9401989
.word 0xaa0903e2
.word 0xaa0803e1
.word 0xaa1303e0
.word 0xa9bf7ffe
bl _DebuggerCallEachOp
.word 0xa8c17ffe
.word 0xf85f8e81
.word 0xf85f8e80
Label_230:
.word 0x38403ec8
.word 0x9103c908
.word 0xf8685aa9
.word 0xd61f0120
.global _dispatch_table_1_34
_dispatch_table_1_34:
.word 0xf8008680
.word 0xf85b83b1
.word 0xf9002234
.word 0x784012ce
.word 0xcb0e03e8
.word 0xd1000509
.word 0xf869da8c
.word 0xf81e03ae
.word 0xf85b83b1
.word 0x91000ec8
.word 0xf9001a28
.word 0xd2800259
.word 0xd280024f
.word 0x910003ed
.word 0xf81f03b4
.word 0xd2800048
.word 0xf2ffffe8
.word 0xea08019f
b.NE Label_234
.word 0x79400d88
.word 0xf1003508
b.NE Label_232
.word 0xaa1e03e1
adrp x30, _normal_entry@PAGE
add x30, x30, _normal_entry@PAGEOFF
.word 0xaa1e03e0
.word 0xaa0103fe
b Label_233
Label_232:
.word 0xaa1e03e1
adrp x30, _native_entry@PAGE
add x30, x30, _native_entry@PAGEOFF
.word 0xaa1e03e0
.word 0xaa0103fe
b Label_233
Label_234:
.word 0xaa1303e0
.word 0xa9bf7ffe
bl _JS_ThrowTypeErrorNotFunction
.word 0xa8c17ffe
.word 0x91000ed6
b __exception_handler_entry
Label_233:
.word 0xcb2e4e97
.word 0xf81983b6
.word 0xd2800006
adrp x30, _return_entry_1_3@PAGE
add x30, x30, _return_entry_1_3@PAGEOFF
.word 0xd61f0000
.global _dispatch_table_2_34
_dispatch_table_2_34:
.word 0xa8810680
.word 0xf85b83b1
.word 0xf9002234
.global _dispatch_table_0_34
_dispatch_table_0_34:
.word 0x784012ce
.word 0xcb0e03e8
.word 0xd1000509
.word 0xf869da8c
.word 0xf81e03ae
.word 0xf85b83b1
.word 0x91000ec8
.word 0xf9001a28
.word 0xd2800259
.word 0xd280024f
.word 0x910003ed
.word 0xf81f03b4
.word 0xd2800048
.word 0xf2ffffe8
.word 0xea08019f
b.NE Label_238
.word 0x79400d88
.word 0xf1003508
b.NE Label_236
.word 0xaa1e03e1
adrp x30, _normal_entry@PAGE
add x30, x30, _normal_entry@PAGEOFF
.word 0xaa1e03e0
.word 0xaa0103fe
b Label_237
Label_236:
.word 0xaa1e03e1
adrp x30, _native_entry@PAGE
add x30, x30, _native_entry@PAGEOFF
.word 0xaa1e03e0
.word 0xaa0103fe
b Label_237
Label_238:
.word 0xaa1303e0
.word 0xa9bf7ffe
bl _JS_ThrowTypeErrorNotFunction
.word 0xa8c17ffe
.word 0x91000ed6
b __exception_handler_entry
Label_237:
.word 0xcb2e4e97
.word 0xf81983b6
.word 0xd2800006
adrp x30, _return_entry_1_3@PAGE
add x30, x30, _return_entry_1_3@PAGEOFF
.word 0xd61f0000
.global _dispatch_table_1_35
_dispatch_table_1_35:
.word 0xf8008680
.word 0xf85b83b1
.word 0xf9002234
.cfi_startproc
.cfi_def_cfa x29,  16
.cfi_offset x29, -16
.cfi_offset x30, -8
.word 0x784012ce
.word 0xcb0e03e8
.word 0xd1000509
.word 0xf869da8c
.word 0xf81e03ae
.word 0xf85b83b1
.word 0x91000ec8
.word 0xf9001a28
.word 0xd2800259
.word 0xd280024f
.word 0x910003ed
.word 0xf81f03b4
.word 0xd2800048
.word 0xf2ffffe8
.word 0xea08019f
b.NE Label_242
.word 0x79400d88
.word 0xf1003508
b.NE Label_240
.word 0xaa1e03e1
adrp x30, _normal_entry@PAGE
add x30, x30, _normal_entry@PAGEOFF
.word 0xaa1e03e0
.word 0xaa0103fe
b Label_241
Label_240:
.word 0xaa1e03e1
adrp x30, _native_entry@PAGE
add x30, x30, _native_entry@PAGEOFF
.word 0xaa1e03e0
.word 0xaa0103fe
b Label_241
Label_242:
.word 0xaa1303e0
.word 0xa9bf7ffe
bl _JS_ThrowTypeErrorNotFunction
.word 0xa8c17ffe
.word 0x91000ed6
b __exception_handler_entry
Label_241:
.word 0xcb2e4e97
.word 0xf81983b6
.word 0xd2800006
.word 0xd63f0000
.word 0xf85f03b4
.word 0xf85e03ae
.word 0x910005d8
.word 0xea18031f
b.LE Label_243
Label_244:
.word 0xd1002294
.word 0xd1000718
cbnz x24, Label_244
Label_243:
.word 0xf85983b6
.word 0xf85c83ba
.word 0xa97ae3b7
.word 0xf85a03bc
.word 0xf85903a9
.word 0x9100013f
.word 0xf102081f
b.NE Label_245
.word 0x91000ed6
.word 0xf85b83b1
.word 0xf9002234
b __exception_handler_entry
Label_245:
.cfi_endproc
.word 0xaa0003f9
.word 0xf85b83b1
.word 0xf9400a69
.word 0xf940022a
.word 0xf900792a
.word 0xaa1103e1
.word 0xaa1303e0
.word 0xa9bf7ffe
bl _prim_close_var_refs_gc
.word 0xa8c17ffe
.word 0xf85c03bb
Label_247:
.word 0xeb1b029f
b.EQ Label_246
.word 0xf85f8e88
b Label_247
Label_246:
.word 0xa9770ba0
cbnz x0, Label_248
b Label_249
Label_248:
.word 0xb9411e60
.word 0x4b020000
.word 0xb9011e60
Label_249:
.word 0xf94007be
.cfi_startproc
.word 0x910003bf
.word 0xa8c17bfd
.cfi_def_cfa x29,  16
.cfi_offset x29, -16
.cfi_offset x30, -8
.cfi_endproc
.word 0xaa1903e0
.word 0xd65f03c0
.global _dispatch_table_2_35
_dispatch_table_2_35:
.word 0xa8810680
.word 0xf85b83b1
.word 0xf9002234
.global _dispatch_table_0_35
_dispatch_table_0_35:
.cfi_startproc
.cfi_def_cfa x29,  16
.cfi_offset x29, -16
.cfi_offset x30, -8
.word 0x784012ce
.word 0xcb0e03e8
.word 0xd1000509
.word 0xf869da8c
.word 0xf81e03ae
.word 0xf85b83b1
.word 0x91000ec8
.word 0xf9001a28
.word 0xd2800259
.word 0xd280024f
.word 0x910003ed
.word 0xf81f03b4
.word 0xd2800048
.word 0xf2ffffe8
.word 0xea08019f
b.NE Label_253
.word 0x79400d88
.word 0xf1003508
b.NE Label_251
.word 0xaa1e03e1
adrp x30, _normal_entry@PAGE
add x30, x30, _normal_entry@PAGEOFF
.word 0xaa1e03e0
.word 0xaa0103fe
b Label_252
Label_251:
.word 0xaa1e03e1
adrp x30, _native_entry@PAGE
add x30, x30, _native_entry@PAGEOFF
.word 0xaa1e03e0
.word 0xaa0103fe
b Label_252
Label_253:
.word 0xaa1303e0
.word 0xa9bf7ffe
bl _JS_ThrowTypeErrorNotFunction
.word 0xa8c17ffe
.word 0x91000ed6
b __exception_handler_entry
Label_252:
.word 0xcb2e4e97
.word 0xf81983b6
.word 0xd2800006
.word 0xd63f0000
.word 0xf85f03b4
.word 0xf85e03ae
.word 0x910005d8
.word 0xea18031f
b.LE Label_254
Label_255:
.word 0xd1002294
.word 0xd1000718
cbnz x24, Label_255
Label_254:
.word 0xf85983b6
.word 0xf85c83ba
.word 0xa97ae3b7
.word 0xf85a03bc
.word 0xf85903a9
.word 0x9100013f
.word 0xf102081f
b.NE Label_256
.word 0x91000ed6
.word 0xf85b83b1
.word 0xf9002234
b __exception_handler_entry
Label_256:
.cfi_endproc
.word 0xaa0003f9
.word 0xf85b83b1
.word 0xf9400a69
.word 0xf940022a
.word 0xf900792a
.word 0xaa1103e1
.word 0xaa1303e0
.word 0xa9bf7ffe
bl _prim_close_var_refs_gc
.word 0xa8c17ffe
.word 0xf85c03bb
Label_258:
.word 0xeb1b029f
b.EQ Label_257
.word 0xf85f8e88
b Label_258
Label_257:
.word 0xa9770ba0
cbnz x0, Label_259
b Label_260
Label_259:
.word 0xb9411e60
.word 0x4b020000
.word 0xb9011e60
Label_260:
.word 0xf94007be
.cfi_startproc
.word 0x910003bf
.word 0xa8c17bfd
.cfi_def_cfa x29,  16
.cfi_offset x29, -16
.cfi_offset x30, -8
.cfi_endproc
.word 0xaa1903e0
.word 0xd65f03c0
.global _dispatch_table_1_36
_dispatch_table_1_36:
.word 0xf8008680
.word 0xf85b83b1
.word 0xf9002234
.word 0x784012ce
.word 0xcb0e03e8
.word 0xd1000508
.word 0xf868da8c
.word 0xd1000508
.word 0xf868da99
.word 0xf81983b6
.word 0x910005c8
.word 0xf81e03a8
.word 0xf85b83b1
.word 0x91000ec8
.word 0xf9001a28
.word 0xd280024f
.word 0x910003ed
.word 0xf81f03b4
.word 0xd2800048
.word 0xf2ffffe8
.word 0xea08019f
b.NE Label_264
.word 0x79400d88
.word 0xf1003508
b.NE Label_262
.word 0xaa1e03e1
adrp x30, _normal_entry@PAGE
add x30, x30, _normal_entry@PAGEOFF
.word 0xaa1e03e0
.word 0xaa0103fe
b Label_263
Label_262:
.word 0xaa1e03e1
adrp x30, _native_entry@PAGE
add x30, x30, _native_entry@PAGEOFF
.word 0xaa1e03e0
.word 0xaa0103fe
b Label_263
Label_264:
.word 0xaa1303e0
.word 0xa9bf7ffe
bl _JS_ThrowTypeErrorNotFunction
.word 0xa8c17ffe
.word 0x91000ed6
b __exception_handler_entry
Label_263:
.word 0xcb2e4e97
.word 0xf81983b6
.word 0xd2800006
adrp x30, _return_entry_1_3@PAGE
add x30, x30, _return_entry_1_3@PAGEOFF
.word 0xd61f0000
.global _dispatch_table_2_36
_dispatch_table_2_36:
.word 0xa8810680
.word 0xf85b83b1
.word 0xf9002234
.global _dispatch_table_0_36
_dispatch_table_0_36:
.word 0x784012ce
.word 0xcb0e03e8
.word 0xd1000508
.word 0xf868da8c
.word 0xd1000508
.word 0xf868da99
.word 0xf81983b6
.word 0x910005c8
.word 0xf81e03a8
.word 0xf85b83b1
.word 0x91000ec8
.word 0xf9001a28
.word 0xd280024f
.word 0x910003ed
.word 0xf81f03b4
.word 0xd2800048
.word 0xf2ffffe8
.word 0xea08019f
b.NE Label_268
.word 0x79400d88
.word 0xf1003508
b.NE Label_266
.word 0xaa1e03e1
adrp x30, _normal_entry@PAGE
add x30, x30, _normal_entry@PAGEOFF
.word 0xaa1e03e0
.word 0xaa0103fe
b Label_267
Label_266:
.word 0xaa1e03e1
adrp x30, _native_entry@PAGE
add x30, x30, _native_entry@PAGEOFF
.word 0xaa1e03e0
.word 0xaa0103fe
b Label_267
Label_268:
.word 0xaa1303e0
.word 0xa9bf7ffe
bl _JS_ThrowTypeErrorNotFunction
.word 0xa8c17ffe
.word 0x91000ed6
b __exception_handler_entry
Label_267:
.word 0xcb2e4e97
.word 0xf81983b6
.word 0xd2800006
adrp x30, _return_entry_1_3@PAGE
add x30, x30, _return_entry_1_3@PAGEOFF
.word 0xd61f0000
.global _dispatch_table_1_37
_dispatch_table_1_37:
.word 0xf8008680
.word 0xf85b83b1
.word 0xf9002234
.cfi_startproc
.cfi_def_cfa x29,  16
.cfi_offset x29, -16
.cfi_offset x30, -8
.word 0x784012ce
.word 0xcb0e03e8
.word 0xd1000508
.word 0xf868da8c
.word 0xd1000508
.word 0xf868da99
.word 0xf81983b6
.word 0x910005c8
.word 0xf81e03a8
.word 0xf85b83b1
.word 0x91000ec8
.word 0xf9001a28
.word 0xd280024f
.word 0x910003ed
.word 0xf81f03b4
.word 0xd2800048
.word 0xf2ffffe8
.word 0xea08019f
b.NE Label_272
.word 0x79400d88
.word 0xf1003508
b.NE Label_270
.word 0xaa1e03e1
adrp x30, _normal_entry@PAGE
add x30, x30, _normal_entry@PAGEOFF
.word 0xaa1e03e0
.word 0xaa0103fe
b Label_271
Label_270:
.word 0xaa1e03e1
adrp x30, _native_entry@PAGE
add x30, x30, _native_entry@PAGEOFF
.word 0xaa1e03e0
.word 0xaa0103fe
b Label_271
Label_272:
.word 0xaa1303e0
.word 0xa9bf7ffe
bl _JS_ThrowTypeErrorNotFunction
.word 0xa8c17ffe
.word 0x91000ed6
b __exception_handler_entry
Label_271:
.word 0xcb2e4e97
.word 0xf81983b6
.word 0xd2800006
.word 0xd63f0000
.word 0xf85f03b4
.word 0xf85e03ae
.word 0x910005d8
.word 0xea18031f
b.LE Label_273
Label_274:
.word 0xd1002294
.word 0xd1000718
cbnz x24, Label_274
Label_273:
.word 0xf85983b6
.word 0xf85c83ba
.word 0xa97ae3b7
.word 0xf85a03bc
.word 0xf85903a9
.word 0x9100013f
.word 0xf102081f
b.NE Label_275
.word 0x91000ed6
.word 0xf85b83b1
.word 0xf9002234
b __exception_handler_entry
Label_275:
.cfi_endproc
.word 0xaa0003f9
.word 0xf85b83b1
.word 0xf9400a69
.word 0xf940022a
.word 0xf900792a
.word 0xaa1103e1
.word 0xaa1303e0
.word 0xa9bf7ffe
bl _prim_close_var_refs_gc
.word 0xa8c17ffe
.word 0xf85c03bb
Label_277:
.word 0xeb1b029f
b.EQ Label_276
.word 0xf85f8e88
b Label_277
Label_276:
.word 0xa9770ba0
cbnz x0, Label_278
b Label_279
Label_278:
.word 0xb9411e60
.word 0x4b020000
.word 0xb9011e60
Label_279:
.word 0xf94007be
.cfi_startproc
.word 0x910003bf
.word 0xa8c17bfd
.cfi_def_cfa x29,  16
.cfi_offset x29, -16
.cfi_offset x30, -8
.cfi_endproc
.word 0xaa1903e0
.word 0xd65f03c0
.global _dispatch_table_2_37
_dispatch_table_2_37:
.word 0xa8810680
.word 0xf85b83b1
.word 0xf9002234
.global _dispatch_table_0_37
_dispatch_table_0_37:
.cfi_startproc
.cfi_def_cfa x29,  16
.cfi_offset x29, -16
.cfi_offset x30, -8
.word 0x784012ce
.word 0xcb0e03e8
.word 0xd1000508
.word 0xf868da8c
.word 0xd1000508
.word 0xf868da99
.word 0xf81983b6
.word 0x910005c8
.word 0xf81e03a8
.word 0xf85b83b1
.word 0x91000ec8
.word 0xf9001a28
.word 0xd280024f
.word 0x910003ed
.word 0xf81f03b4
.word 0xd2800048
.word 0xf2ffffe8
.word 0xea08019f
b.NE Label_283
.word 0x79400d88
.word 0xf1003508
b.NE Label_281
.word 0xaa1e03e1
adrp x30, _normal_entry@PAGE
add x30, x30, _normal_entry@PAGEOFF
.word 0xaa1e03e0
.word 0xaa0103fe
b Label_282
Label_281:
.word 0xaa1e03e1
adrp x30, _native_entry@PAGE
add x30, x30, _native_entry@PAGEOFF
.word 0xaa1e03e0
.word 0xaa0103fe
b Label_282
Label_283:
.word 0xaa1303e0
.word 0xa9bf7ffe
bl _JS_ThrowTypeErrorNotFunction
.word 0xa8c17ffe
.word 0x91000ed6
b __exception_handler_entry
Label_282:
.word 0xcb2e4e97
.word 0xf81983b6
.word 0xd2800006
.word 0xd63f0000
.word 0xf85f03b4
.word 0xf85e03ae
.word 0x910005d8
.word 0xea18031f
b.LE Label_284
Label_285:
.word 0xd1002294
.word 0xd1000718
cbnz x24, Label_285
Label_284:
.word 0xf85983b6
.word 0xf85c83ba
.word 0xa97ae3b7
.word 0xf85a03bc
.word 0xf85903a9
.word 0x9100013f
.word 0xf102081f
b.NE Label_286
.word 0x91000ed6
.word 0xf85b83b1
.word 0xf9002234
b __exception_handler_entry
Label_286:
.cfi_endproc
.word 0xaa0003f9
.word 0xf85b83b1
.word 0xf9400a69
.word 0xf940022a
.word 0xf900792a
.word 0xaa1103e1
.word 0xaa1303e0
.word 0xa9bf7ffe
bl _prim_close_var_refs_gc
.word 0xa8c17ffe
.word 0xf85c03bb
Label_288:
.word 0xeb1b029f
b.EQ Label_287
.word 0xf85f8e88
b Label_288
Label_287:
.word 0xa9770ba0
cbnz x0, Label_289
b Label_290
Label_289:
.word 0xb9411e60
.word 0x4b020000
.word 0xb9011e60
Label_290:
.word 0xf94007be
.cfi_startproc
.word 0x910003bf
.word 0xa8c17bfd
.cfi_def_cfa x29,  16
.cfi_offset x29, -16
.cfi_offset x30, -8
.cfi_endproc
.word 0xaa1903e0
.word 0xd65f03c0
.global _dispatch_table_1_38
_dispatch_table_1_38:
.word 0xf8008680
.word 0xf85b83b1
.word 0xf9002234
.word 0xf85b83b1
.word 0xf9002234
.word 0xaa1303e0
.word 0xa9bf7ffe
bl _PRIM_JS_NewArray_GC
.word 0xa8c17ffe
.word 0xf102081f
b.NE Label_291
.word 0x91000ed6
.word 0xf85b83b1
.word 0xf9002234
b __exception_handler_entry
Label_291:
.word 0x784012d9
.word 0xaa1903e1
Label_294:
.word 0xea19033f
b.EQ Label_293
.word 0xcb190028
.word 0xcb1903e9
.word 0xf869da83
.word 0xd1000739
.word 0x32010102
.word 0xd28800e4
.word 0xf8008680
.word 0xf85b83b1
.word 0xf9002234
.word 0xf8008681
.word 0xaa0003e1
.word 0xaa1303e0
.word 0xa9bf7ffe
bl _LEPUS_DefinePropertyValue
.word 0xa8c17ffe
.word 0xf100001f
b.LT Label_292
.word 0xf85f8e81
.word 0xf85f8e80
b Label_294
Label_293:
.word 0xcb214e94
.word 0xb9414269
cbz w9, Label_295
.word 0xf8008680
.word 0xf8008681
.word 0xb10012c8
.word 0xf85e83ac
.word 0xf9401989
.word 0xaa0903e2
.word 0xaa0803e1
.word 0xaa1303e0
.word 0xa9bf7ffe
bl _DebuggerCallEachOp
.word 0xa8c17ffe
.word 0xf85f8e81
.word 0xf85f8e80
Label_295:
.word 0x38403ec8
.word 0x9103c908
.word 0xf8685aa9
.word 0xd61f0120
Label_292:
.word 0xf85f8e81
.word 0xf85f8e80
.word 0x91000ed6
.word 0xf85b83b1
.word 0xf9002234
b __exception_handler_entry
.word 0xb9414269
cbz w9, Label_296
.word 0xf8008680
.word 0xf8008681
.word 0xb10012c8
.word 0xf85e83ac
.word 0xf9401989
.word 0xaa0903e2
.word 0xaa0803e1
.word 0xaa1303e0
.word 0xa9bf7ffe
bl _DebuggerCallEachOp
.word 0xa8c17ffe
.word 0xf85f8e81
.word 0xf85f8e80
Label_296:
.word 0x38403ec8
.word 0x9103c908
.word 0xf8685aa9
.word 0xd61f0120
.global _dispatch_table_2_38
_dispatch_table_2_38:
.word 0xa8810680
.word 0xf85b83b1
.word 0xf9002234
.global _dispatch_table_0_38
_dispatch_table_0_38:
.word 0xf85b83b1
.word 0xf9002234
.word 0xaa1303e0
.word 0xa9bf7ffe
bl _PRIM_JS_NewArray_GC
.word 0xa8c17ffe
.word 0xf102081f
b.NE Label_297
.word 0x91000ed6
.word 0xf85b83b1
.word 0xf9002234
b __exception_handler_entry
Label_297:
.word 0x784012d9
.word 0xaa1903e1
Label_300:
.word 0xea19033f
b.EQ Label_299
.word 0xcb190028
.word 0xcb1903e9
.word 0xf869da83
.word 0xd1000739
.word 0x32010102
.word 0xd28800e4
.word 0xf8008680
.word 0xf85b83b1
.word 0xf9002234
.word 0xf8008681
.word 0xaa0003e1
.word 0xaa1303e0
.word 0xa9bf7ffe
bl _LEPUS_DefinePropertyValue
.word 0xa8c17ffe
.word 0xf100001f
b.LT Label_298
.word 0xf85f8e81
.word 0xf85f8e80
b Label_300
Label_299:
.word 0xcb214e94
.word 0xb9414269
cbz w9, Label_301
.word 0xf8008680
.word 0xf8008681
.word 0xb10012c8
.word 0xf85e83ac
.word 0xf9401989
.word 0xaa0903e2
.word 0xaa0803e1
.word 0xaa1303e0
.word 0xa9bf7ffe
bl _DebuggerCallEachOp
.word 0xa8c17ffe
.word 0xf85f8e81
.word 0xf85f8e80
Label_301:
.word 0x38403ec8
.word 0x9103c908
.word 0xf8685aa9
.word 0xd61f0120
Label_298:
.word 0xf85f8e81
.word 0xf85f8e80
.word 0x91000ed6
.word 0xf85b83b1
.word 0xf9002234
b __exception_handler_entry
.word 0xb9414269
cbz w9, Label_302
.word 0xf8008680
.word 0xf8008681
.word 0xb10012c8
.word 0xf85e83ac
.word 0xf9401989
.word 0xaa0903e2
.word 0xaa0803e1
.word 0xaa1303e0
.word 0xa9bf7ffe
bl _DebuggerCallEachOp
.word 0xa8c17ffe
.word 0xf85f8e81
.word 0xf85f8e80
Label_302:
.word 0x38403ec8
.word 0x9103c908
.word 0xf8685aa9
.word 0xd61f0120
.global _dispatch_table_1_39
_dispatch_table_1_39:
.word 0xf8008680
.word 0xf85b83b1
.word 0xf9002234
.word 0x784012c8
.word 0xf85e8281
.word 0xb27f03e2
.word 0xd1004283
.word 0xf85b83b1
.word 0xf9002234
.word 0xaa0803e4
.word 0xaa1303e0
.word 0xa9bf7ffe
bl _js_function_apply_gc
.word 0xa8c17ffe
.word 0xf102081f
b.NE Label_303
.word 0x91000ed6
.word 0xf85b83b1
.word 0xf9002234
b __exception_handler_entry
Label_303:
.word 0xaa0003f9
.word 0xf85f8e81
.word 0xf85f8e81
.word 0xf85f8e81
.word 0xaa1903e0
.word 0xb9414269
cbz w9, Label_304
.word 0xf8008680
.word 0xf8008681
.word 0xb10012c8
.word 0xf85e83ac
.word 0xf9401989
.word 0xaa0903e2
.word 0xaa0803e1
.word 0xaa1303e0
.word 0xa9bf7ffe
bl _DebuggerCallEachOp
.word 0xa8c17ffe
.word 0xf85f8e81
.word 0xf85f8e80
Label_304:
.word 0x38403ec8
.word 0x9103c908
.word 0xf8685aa9
.word 0xd61f0120
.global _dispatch_table_2_39
_dispatch_table_2_39:
.word 0xa8810680
.word 0xf85b83b1
.word 0xf9002234
.global _dispatch_table_0_39
_dispatch_table_0_39:
.word 0x784012c8
.word 0xf85e8281
.word 0xb27f03e2
.word 0xd1004283
.word 0xf85b83b1
.word 0xf9002234
.word 0xaa0803e4
.word 0xaa1303e0
.word 0xa9bf7ffe
bl _js_function_apply_gc
.word 0xa8c17ffe
.word 0xf102081f
b.NE Label_305
.word 0x91000ed6
.word 0xf85b83b1
.word 0xf9002234
b __exception_handler_entry
Label_305:
.word 0xaa0003f9
.word 0xf85f8e81
.word 0xf85f8e81
.word 0xf85f8e81
.word 0xaa1903e0
.word 0xb9414269
cbz w9, Label_306
.word 0xf8008680
.word 0xf8008681
.word 0xb10012c8
.word 0xf85e83ac
.word 0xf9401989
.word 0xaa0903e2
.word 0xaa0803e1
.word 0xaa1303e0
.word 0xa9bf7ffe
bl _DebuggerCallEachOp
.word 0xa8c17ffe
.word 0xf85f8e81
.word 0xf85f8e80
Label_306:
.word 0x38403ec8
.word 0x9103c908
.word 0xf8685aa9
.word 0xd61f0120
.global _dispatch_table_2_40
_dispatch_table_2_40:
.word 0xf8008680
.word 0xaa0103e0
.word 0xf85b83b1
.word 0xf9002234
.word 0xaa0003f9
.word 0xf85b83b1
.word 0xf9400a69
.word 0xf940022a
.word 0xf900792a
.word 0xaa1103e1
.word 0xaa1303e0
.word 0xa9bf7ffe
bl _prim_close_var_refs_gc
.word 0xa8c17ffe
.word 0xf85c03bb
Label_308:
.word 0xeb1b029f
b.EQ Label_307
.word 0xf85f8e88
b Label_308
Label_307:
.word 0xa9770ba0
cbnz x0, Label_309
b Label_310
Label_309:
.word 0xb9411e60
.word 0x4b020000
.word 0xb9011e60
Label_310:
.word 0xf94007be
.cfi_startproc
.word 0x910003bf
.word 0xa8c17bfd
.cfi_def_cfa x29,  16
.cfi_offset x29, -16
.cfi_offset x30, -8
.cfi_endproc
.word 0xaa1903e0
.word 0xd65f03c0
.global _dispatch_table_0_40
_dispatch_table_0_40:
.word 0xf85f8e80
.global _dispatch_table_1_40
_dispatch_table_1_40:
.word 0xaa0003f9
.word 0xf85b83b1
.word 0xf9400a69
.word 0xf940022a
.word 0xf900792a
.word 0xaa1103e1
.word 0xaa1303e0
.word 0xa9bf7ffe
bl _prim_close_var_refs_gc
.word 0xa8c17ffe
.word 0xf85c03bb
Label_312:
.word 0xeb1b029f
b.EQ Label_311
.word 0xf85f8e88
b Label_312
Label_311:
.word 0xa9770ba0
cbnz x0, Label_313
b Label_314
Label_313:
.word 0xb9411e60
.word 0x4b020000
.word 0xb9011e60
Label_314:
.word 0xf94007be
.cfi_startproc
.word 0x910003bf
.word 0xa8c17bfd
.cfi_def_cfa x29,  16
.cfi_offset x29, -16
.cfi_offset x30, -8
.cfi_endproc
.word 0xaa1903e0
.word 0xd65f03c0
.global _dispatch_table_1_41
_dispatch_table_1_41:
.word 0xf8008680
.word 0xf85b83b1
.word 0xf9002234
.word 0xf85b83b1
.word 0xf9400a69
.word 0xf940022a
.word 0xf900792a
.word 0xaa1103e1
.word 0xaa1303e0
.word 0xa9bf7ffe
bl _prim_close_var_refs_gc
.word 0xa8c17ffe
.word 0xf85c03bb
Label_316:
.word 0xeb1b029f
b.EQ Label_315
.word 0xf85f8e88
b Label_316
Label_315:
.word 0xa9770ba0
cbnz x0, Label_317
b Label_318
Label_317:
.word 0xb9411e60
.word 0x4b020000
.word 0xb9011e60
Label_318:
.word 0xf94007be
.cfi_startproc
.word 0x910003bf
.word 0xa8c17bfd
.cfi_def_cfa x29,  16
.cfi_offset x29, -16
.cfi_offset x30, -8
.cfi_endproc
.word 0xd2800240
.word 0xd65f03c0
.global _dispatch_table_2_41
_dispatch_table_2_41:
.word 0xa8810680
.word 0xf85b83b1
.word 0xf9002234
.global _dispatch_table_0_41
_dispatch_table_0_41:
.word 0xf85b83b1
.word 0xf9400a69
.word 0xf940022a
.word 0xf900792a
.word 0xaa1103e1
.word 0xaa1303e0
.word 0xa9bf7ffe
bl _prim_close_var_refs_gc
.word 0xa8c17ffe
.word 0xf85c03bb
Label_320:
.word 0xeb1b029f
b.EQ Label_319
.word 0xf85f8e88
b Label_320
Label_319:
.word 0xa9770ba0
cbnz x0, Label_321
b Label_322
Label_321:
.word 0xb9411e60
.word 0x4b020000
.word 0xb9011e60
Label_322:
.word 0xf94007be
.cfi_startproc
.word 0x910003bf
.word 0xa8c17bfd
.cfi_def_cfa x29,  16
.cfi_offset x29, -16
.cfi_offset x30, -8
.cfi_endproc
.word 0xd2800240
.word 0xd65f03c0
.global _dispatch_table_2_42
_dispatch_table_2_42:
.word 0xf8008680
.word 0xaa0103e0
.word 0xf85b83b1
.word 0xf9002234
.word 0xd2800049
.word 0xf2ffffe9
.word 0xea090009
cbnz x9, Label_323
.word 0xb27f07e1
b Label_324
Label_323:
.word 0xd2800249
.word 0xeb09001f
b.EQ Label_325
.word 0xf8008680
adr x1, Label_326
b Label_327
Label_326:
.asciz "derived class constructor must return an object or undefined"
.align 3
Label_327:
.word 0xf85b83b1
.word 0xf9002234
.word 0xaa1303e0
.word 0xa9bf7ffe
bl _LEPUS_ThrowTypeError
.word 0xa8c17ffe
.word 0xf85b83b1
.word 0xf9002234
.word 0x910006d6
b __exception_handler_entry
Label_325:
.word 0xb2400be1
Label_324:
.word 0xb9414269
cbz w9, Label_328
.word 0xf8008680
.word 0xf8008681
.word 0xb1000ac8
.word 0xf85e83ac
.word 0xf9401989
.word 0xaa0903e2
.word 0xaa0803e1
.word 0xaa1303e0
.word 0xa9bf7ffe
bl _DebuggerCallEachOp
.word 0xa8c17ffe
.word 0xf85f8e81
.word 0xf85f8e80
Label_328:
.word 0x38401ec8
.word 0x91079108
.word 0xf8685aa9
.word 0xd61f0120
.global _dispatch_table_0_42
_dispatch_table_0_42:
.word 0xf85f8e80
.global _dispatch_table_1_42
_dispatch_table_1_42:
.word 0xd2800049
.word 0xf2ffffe9
.word 0xea090009
cbnz x9, Label_329
.word 0xb27f07e1
b Label_330
Label_329:
.word 0xd2800249
.word 0xeb09001f
b.EQ Label_331
.word 0xf8008680
adr x1, Label_332
b Label_333
Label_332:
.asciz "derived class constructor must return an object or undefined"
.align 3
Label_333:
.word 0xf85b83b1
.word 0xf9002234
.word 0xaa1303e0
.word 0xa9bf7ffe
bl _LEPUS_ThrowTypeError
.word 0xa8c17ffe
.word 0xf85b83b1
.word 0xf9002234
.word 0x910006d6
b __exception_handler_entry
Label_331:
.word 0xb2400be1
Label_330:
.word 0xb9414269
cbz w9, Label_334
.word 0xf8008680
.word 0xf8008681
.word 0xb1000ac8
.word 0xf85e83ac
.word 0xf9401989
.word 0xaa0903e2
.word 0xaa0803e1
.word 0xaa1303e0
.word 0xa9bf7ffe
bl _DebuggerCallEachOp
.word 0xa8c17ffe
.word 0xf85f8e81
.word 0xf85f8e80
Label_334:
.word 0x38401ec8
.word 0x91079108
.word 0xf8685aa9
.word 0xd61f0120
.global _dispatch_table_0_43
_dispatch_table_0_43:
.word 0xf85d03af
.word 0xd2800248
.word 0xeb0801ff
b.NE Label_335
adr x1, Label_336
b Label_337
Label_336:
.asciz "class constructors must be invoked with 'new'"
.align 3
Label_337:
.word 0x910006d6
.word 0xf85b83b1
.word 0xf9002234
.word 0xaa1303e0
.word 0xa9bf7ffe
bl _LEPUS_ThrowTypeError
.word 0xa8c17ffe
.word 0xf85b83b1
.word 0xf9002234
b __exception_handler_entry
Label_335:
.word 0xb9414269
cbz w9, Label_338
.word 0xf8008680
.word 0xf8008681
.word 0xb1000ac8
.word 0xf85e83ac
.word 0xf9401989
.word 0xaa0903e2
.word 0xaa0803e1
.word 0xaa1303e0
.word 0xa9bf7ffe
bl _DebuggerCallEachOp
.word 0xa8c17ffe
.word 0xf85f8e81
.word 0xf85f8e80
Label_338:
.word 0x38401ec8
.word 0x91000108
.word 0xf8685aa9
.word 0xd61f0120
.global _dispatch_table_1_43
_dispatch_table_1_43:
.word 0xf85d03af
.word 0xd2800248
.word 0xeb0801ff
b.NE Label_339
adr x1, Label_340
b Label_341
Label_340:
.asciz "class constructors must be invoked with 'new'"
.align 3
Label_341:
.word 0x910006d6
.word 0xf85b83b1
.word 0xf9002234
.word 0xaa1303e0
.word 0xa9bf7ffe
bl _LEPUS_ThrowTypeError
.word 0xa8c17ffe
.word 0xf85b83b1
.word 0xf9002234
b __exception_handler_entry
Label_339:
.word 0xb9414269
cbz w9, Label_342
.word 0xf8008680
.word 0xf8008681
.word 0xb1000ac8
.word 0xf85e83ac
.word 0xf9401989
.word 0xaa0903e2
.word 0xaa0803e1
.word 0xaa1303e0
.word 0xa9bf7ffe
bl _DebuggerCallEachOp
.word 0xa8c17ffe
.word 0xf85f8e81
.word 0xf85f8e80
Label_342:
.word 0x38401ec8
.word 0x9103c908
.word 0xf8685aa9
.word 0xd61f0120
.global _dispatch_table_2_43
_dispatch_table_2_43:
.word 0xf85d03af
.word 0xd2800248
.word 0xeb0801ff
b.NE Label_343
adr x1, Label_344
b Label_345
Label_344:
.asciz "class constructors must be invoked with 'new'"
.align 3
Label_345:
.word 0x910006d6
.word 0xf85b83b1
.word 0xf9002234
.word 0xaa1303e0
.word 0xa9bf7ffe
bl _LEPUS_ThrowTypeError
.word 0xa8c17ffe
.word 0xf85b83b1
.word 0xf9002234
b __exception_handler_entry
Label_343:
.word 0xb9414269
cbz w9, Label_346
.word 0xf8008680
.word 0xf8008681
.word 0xb1000ac8
.word 0xf85e83ac
.word 0xf9401989
.word 0xaa0903e2
.word 0xaa0803e1
.word 0xaa1303e0
.word 0xa9bf7ffe
bl _DebuggerCallEachOp
.word 0xa8c17ffe
.word 0xf85f8e81
.word 0xf85f8e80
Label_346:
.word 0x38401ec8
.word 0x91079108
.word 0xf8685aa9
.word 0xd61f0120
.global _dispatch_table_0_44
_dispatch_table_0_44:
.word 0xa9ff0680
.word 0xf8008680
.word 0xf8008681
.word 0xf85b83b1
.word 0xf9002234
.word 0xaa0103e2
.word 0xaa0003e1
.word 0xaa1303e0
.word 0xa9bf7ffe
bl _JS_CheckBrand_GC
.word 0xa8c17ffe
.word 0x7100001f
b.GE Label_347
.word 0x910006d6
.word 0xf85b83b1
.word 0xf9002234
b __exception_handler_entry
Label_347:
.word 0xb9414269
cbz w9, Label_348
.word 0xf8008680
.word 0xf8008681
.word 0xb1000ac8
.word 0xf85e83ac
.word 0xf9401989
.word 0xaa0903e2
.word 0xaa0803e1
.word 0xaa1303e0
.word 0xa9bf7ffe
bl _DebuggerCallEachOp
.word 0xa8c17ffe
.word 0xf85f8e81
.word 0xf85f8e80
Label_348:
.word 0x38401ec8
.word 0x91000108
.word 0xf8685aa9
.word 0xd61f0120
.global _dispatch_table_1_44
_dispatch_table_1_44:
.word 0xaa0003e1
.word 0xf85f8e80
.global _dispatch_table_2_44
_dispatch_table_2_44:
.word 0xf8008680
.word 0xf8008681
.word 0xf85b83b1
.word 0xf9002234
.word 0xaa0103e2
.word 0xaa0003e1
.word 0xaa1303e0
.word 0xa9bf7ffe
bl _JS_CheckBrand_GC
.word 0xa8c17ffe
.word 0x7100001f
b.GE Label_349
.word 0x910006d6
.word 0xf85b83b1
.word 0xf9002234
b __exception_handler_entry
Label_349:
.word 0xb9414269
cbz w9, Label_350
.word 0xf8008680
.word 0xf8008681
.word 0xb1000ac8
.word 0xf85e83ac
.word 0xf9401989
.word 0xaa0903e2
.word 0xaa0803e1
.word 0xaa1303e0
.word 0xa9bf7ffe
bl _DebuggerCallEachOp
.word 0xa8c17ffe
.word 0xf85f8e81
.word 0xf85f8e80
Label_350:
.word 0x38401ec8
.word 0x91000108
.word 0xf8685aa9
.word 0xd61f0120
.global _dispatch_table_0_45
_dispatch_table_0_45:
.word 0xa9ff0680
.word 0xf8008680
.word 0xf8008681
.word 0xf85b83b1
.word 0xf9002234
.word 0xaa0103e2
.word 0xaa0003e1
.word 0xaa1303e0
.word 0xa9bf7ffe
bl _JS_AddBrand_GC
.word 0xa8c17ffe
.word 0x7100001f
b.GE Label_351
.word 0x910006d6
.word 0xf85b83b1
.word 0xf9002234
b __exception_handler_entry
Label_351:
.word 0xd1002294
.word 0xd1002294
.word 0xb9414269
cbz w9, Label_352
.word 0xf8008680
.word 0xf8008681
.word 0xb1000ac8
.word 0xf85e83ac
.word 0xf9401989
.word 0xaa0903e2
.word 0xaa0803e1
.word 0xaa1303e0
.word 0xa9bf7ffe
bl _DebuggerCallEachOp
.word 0xa8c17ffe
.word 0xf85f8e81
.word 0xf85f8e80
Label_352:
.word 0x38401ec8
.word 0x91000108
.word 0xf8685aa9
.word 0xd61f0120
.global _dispatch_table_1_45
_dispatch_table_1_45:
.word 0xaa0003e1
.word 0xf85f8e80
.global _dispatch_table_2_45
_dispatch_table_2_45:
.word 0xf8008680
.word 0xf8008681
.word 0xf85b83b1
.word 0xf9002234
.word 0xaa0103e2
.word 0xaa0003e1
.word 0xaa1303e0
.word 0xa9bf7ffe
bl _JS_AddBrand_GC
.word 0xa8c17ffe
.word 0x7100001f
b.GE Label_353
.word 0x910006d6
.word 0xf85b83b1
.word 0xf9002234
b __exception_handler_entry
Label_353:
.word 0xd1002294
.word 0xd1002294
.word 0xb9414269
cbz w9, Label_354
.word 0xf8008680
.word 0xf8008681
.word 0xb1000ac8
.word 0xf85e83ac
.word 0xf9401989
.word 0xaa0903e2
.word 0xaa0803e1
.word 0xaa1303e0
.word 0xa9bf7ffe
bl _DebuggerCallEachOp
.word 0xa8c17ffe
.word 0xf85f8e81
.word 0xf85f8e80
Label_354:
.word 0x38401ec8
.word 0x91000108
.word 0xf8685aa9
.word 0xd61f0120
.global _dispatch_table_1_46
_dispatch_table_1_46:
.word 0xf8008680
.word 0xf85b83b1
.word 0xf9002234
.word 0xd2800240
.word 0x910006d6
.word 0xf85b83b1
.word 0xf9001a36
.word 0xf9002234
.word 0xf9400228
.word 0xf9400a69
.word 0xf9007928
.word 0xf94007be
.cfi_startproc
.word 0x910003bf
.word 0xa8c17bfd
.cfi_def_cfa x29,  16
.cfi_offset x29, -16
.cfi_offset x30, -8
.cfi_endproc
.word 0xd65f03c0
.word 0xb9414269
cbz w9, Label_355
.word 0xf8008680
.word 0xf8008681
.word 0xb1000ac8
.word 0xf85e83ac
.word 0xf9401989
.word 0xaa0903e2
.word 0xaa0803e1
.word 0xaa1303e0
.word 0xa9bf7ffe
bl _DebuggerCallEachOp
.word 0xa8c17ffe
.word 0xf85f8e81
.word 0xf85f8e80
Label_355:
.word 0x38401ec8
.word 0x91000108
.word 0xf8685aa9
.word 0xd61f0120
.global _dispatch_table_2_46
_dispatch_table_2_46:
.word 0xa8810680
.word 0xf85b83b1
.word 0xf9002234
.global _dispatch_table_0_46
_dispatch_table_0_46:
.word 0xd2800240
.word 0x910006d6
.word 0xf85b83b1
.word 0xf9001a36
.word 0xf9002234
.word 0xf9400228
.word 0xf9400a69
.word 0xf9007928
.word 0xf94007be
.cfi_startproc
.word 0x910003bf
.word 0xa8c17bfd
.cfi_def_cfa x29,  16
.cfi_offset x29, -16
.cfi_offset x30, -8
.cfi_endproc
.word 0xd65f03c0
.word 0xb9414269
cbz w9, Label_356
.word 0xf8008680
.word 0xf8008681
.word 0xb1000ac8
.word 0xf85e83ac
.word 0xf9401989
.word 0xaa0903e2
.word 0xaa0803e1
.word 0xaa1303e0
.word 0xa9bf7ffe
bl _DebuggerCallEachOp
.word 0xa8c17ffe
.word 0xf85f8e81
.word 0xf85f8e80
Label_356:
.word 0x38401ec8
.word 0x91000108
.word 0xf8685aa9
.word 0xd61f0120
.global _dispatch_table_2_47
_dispatch_table_2_47:
.word 0xf8008680
.word 0xaa0103e0
.word 0xf85b83b1
.word 0xf9002234
.word 0xaa0003e1
.word 0xaa1303e0
.word 0xa9bf7ffe
bl _LEPUS_Throw
.word 0xa8c17ffe
.word 0x910006d6
b __exception_handler_entry
.word 0xb9414269
cbz w9, Label_357
.word 0xf8008680
.word 0xf8008681
.word 0xb1000ac8
.word 0xf85e83ac
.word 0xf9401989
.word 0xaa0903e2
.word 0xaa0803e1
.word 0xaa1303e0
.word 0xa9bf7ffe
bl _DebuggerCallEachOp
.word 0xa8c17ffe
.word 0xf85f8e81
.word 0xf85f8e80
Label_357:
.word 0x38401ec8
.word 0x91000108
.word 0xf8685aa9
.word 0xd61f0120
.global _dispatch_table_0_47
_dispatch_table_0_47:
.word 0xf85f8e80
.global _dispatch_table_1_47
_dispatch_table_1_47:
.word 0xaa0003e1
.word 0xaa1303e0
.word 0xa9bf7ffe
bl _LEPUS_Throw
.word 0xa8c17ffe
.word 0x910006d6
b __exception_handler_entry
.word 0xb9414269
cbz w9, Label_358
.word 0xf8008680
.word 0xf8008681
.word 0xb1000ac8
.word 0xf85e83ac
.word 0xf9401989
.word 0xaa0903e2
.word 0xaa0803e1
.word 0xaa1303e0
.word 0xa9bf7ffe
bl _DebuggerCallEachOp
.word 0xa8c17ffe
.word 0xf85f8e81
.word 0xf85f8e80
Label_358:
.word 0x38401ec8
.word 0x91000108
.word 0xf8685aa9
.word 0xd61f0120
.global _dispatch_table_1_48
_dispatch_table_1_48:
.word 0xf8008680
.word 0xf85b83b1
.word 0xf9002234
.word 0xb84012c8
.word 0x394016c9
.word 0xf85b83b1
.word 0xf9002234
.word 0xf100013f
b.NE Label_359
.word 0xb27203e1
.word 0xaa0803e2
.word 0xaa1303e0
.word 0xa9bf7ffe
bl _JS_ThrowTypeErrorReadOnly
.word 0xa8c17ffe
.word 0x91001ad6
b __exception_handler_entry
Label_359:
.word 0xf100053f
b.NE Label_360
.word 0xaa0803e1
.word 0xaa1303e0
.word 0xa9bf7ffe
bl _JS_ThrowSyntaxErrorVarRedeclaration_GC
.word 0xa8c17ffe
.word 0x91001ad6
b __exception_handler_entry
Label_360:
.word 0xf100093f
b.NE Label_361
.word 0xaa0803e1
.word 0xaa1303e0
.word 0xa9bf7ffe
bl _JS_ThrowReferenceErrorUninitialized_GC
.word 0xa8c17ffe
.word 0x91001ad6
b __exception_handler_entry
Label_361:
.word 0xf1000d3f
b.NE Label_362
adr x1, Label_364
b Label_365
Label_364:
.asciz "unsupported reference to 'super'"
.align 3
Label_365:
.word 0xaa1303e0
.word 0xa9bf7ffe
bl _LEPUS_ThrowReferenceError
.word 0xa8c17ffe
.word 0x91001ad6
b __exception_handler_entry
Label_362:
.word 0xf100113f
b.NE Label_363
adr x1, Label_366
b Label_367
Label_366:
.asciz "iterator does not have a throw method"
.align 3
Label_367:
.word 0xaa1303e0
.word 0xa9bf7ffe
bl _LEPUS_ThrowTypeError
.word 0xa8c17ffe
.word 0x91001ad6
b __exception_handler_entry
Label_363:
adr x1, Label_368
b Label_369
Label_368:
.asciz "invalid throw var type %d"
.align 3
Label_369:
.word 0xaa0903e2
.word 0xaa1303e0
.word 0xa9bf7ffe
bl _LEPUS_ThrowInternalError
.word 0xa8c17ffe
.word 0x91001ad6
b __exception_handler_entry
.word 0xb9414269
cbz w9, Label_370
.word 0xf8008680
.word 0xf8008681
.word 0xb1001ec8
.word 0xf85e83ac
.word 0xf9401989
.word 0xaa0903e2
.word 0xaa0803e1
.word 0xaa1303e0
.word 0xa9bf7ffe
bl _DebuggerCallEachOp
.word 0xa8c17ffe
.word 0xf85f8e81
.word 0xf85f8e80
Label_370:
.word 0x38406ec8
.word 0x91000108
.word 0xf8685aa9
.word 0xd61f0120
.global _dispatch_table_2_48
_dispatch_table_2_48:
.word 0xa8810680
.word 0xf85b83b1
.word 0xf9002234
.global _dispatch_table_0_48
_dispatch_table_0_48:
.word 0xb84012c8
.word 0x394016c9
.word 0xf85b83b1
.word 0xf9002234
.word 0xf100013f
b.NE Label_371
.word 0xb27203e1
.word 0xaa0803e2
.word 0xaa1303e0
.word 0xa9bf7ffe
bl _JS_ThrowTypeErrorReadOnly
.word 0xa8c17ffe
.word 0x91001ad6
b __exception_handler_entry
Label_371:
.word 0xf100053f
b.NE Label_372
.word 0xaa0803e1
.word 0xaa1303e0
.word 0xa9bf7ffe
bl _JS_ThrowSyntaxErrorVarRedeclaration_GC
.word 0xa8c17ffe
.word 0x91001ad6
b __exception_handler_entry
Label_372:
.word 0xf100093f
b.NE Label_373
.word 0xaa0803e1
.word 0xaa1303e0
.word 0xa9bf7ffe
bl _JS_ThrowReferenceErrorUninitialized_GC
.word 0xa8c17ffe
.word 0x91001ad6
b __exception_handler_entry
Label_373:
.word 0xf1000d3f
b.NE Label_374
adr x1, Label_376
b Label_377
Label_376:
.asciz "unsupported reference to 'super'"
.align 3
Label_377:
.word 0xaa1303e0
.word 0xa9bf7ffe
bl _LEPUS_ThrowReferenceError
.word 0xa8c17ffe
.word 0x91001ad6
b __exception_handler_entry
Label_374:
.word 0xf100113f
b.NE Label_375
adr x1, Label_378
b Label_379
Label_378:
.asciz "iterator does not have a throw method"
.align 3
Label_379:
.word 0xaa1303e0
.word 0xa9bf7ffe
bl _LEPUS_ThrowTypeError
.word 0xa8c17ffe
.word 0x91001ad6
b __exception_handler_entry
Label_375:
adr x1, Label_380
b Label_381
Label_380:
.asciz "invalid throw var type %d"
.align 3
Label_381:
.word 0xaa0903e2
.word 0xaa1303e0
.word 0xa9bf7ffe
bl _LEPUS_ThrowInternalError
.word 0xa8c17ffe
.word 0x91001ad6
b __exception_handler_entry
.word 0xb9414269
cbz w9, Label_382
.word 0xf8008680
.word 0xf8008681
.word 0xb1001ec8
.word 0xf85e83ac
.word 0xf9401989
.word 0xaa0903e2
.word 0xaa0803e1
.word 0xaa1303e0
.word 0xa9bf7ffe
bl _DebuggerCallEachOp
.word 0xa8c17ffe
.word 0xf85f8e81
.word 0xf85f8e80
Label_382:
.word 0x38406ec8
.word 0x91000108
.word 0xf8685aa9
.word 0xd61f0120
.global _dispatch_table_2_49
_dispatch_table_2_49:
.word 0xf8008680
.word 0xaa0103e0
.word 0xf85b83b1
.word 0xf9002234
.word 0x784012c1
.word 0x51000421
.word 0xf8008680
.word 0xf85b83b1
.word 0xf9002234
.word 0xaa0003e2
.word 0xaa1303e0
.word 0xa9bf7ffe
bl _prim_js_op_eval_gc
.word 0xa8c17ffe
.word 0xd1002294
.word 0xf102081f
b.NE Label_383
.word 0x91000ed6
.word 0xf85b83b1
.word 0xf9002234
b __exception_handler_entry
Label_383:
.word 0xb9414269
cbz w9, Label_384
.word 0xf8008680
.word 0xf8008681
.word 0xb10012c8
.word 0xf85e83ac
.word 0xf9401989
.word 0xaa0903e2
.word 0xaa0803e1
.word 0xaa1303e0
.word 0xa9bf7ffe
bl _DebuggerCallEachOp
.word 0xa8c17ffe
.word 0xf85f8e81
.word 0xf85f8e80
Label_384:
.word 0x38403ec8
.word 0x9103c908
.word 0xf8685aa9
.word 0xd61f0120
.global _dispatch_table_0_49
_dispatch_table_0_49:
.word 0xf85f8e80
.global _dispatch_table_1_49
_dispatch_table_1_49:
.word 0x784012c1
.word 0x51000421
.word 0xf8008680
.word 0xf85b83b1
.word 0xf9002234
.word 0xaa0003e2
.word 0xaa1303e0
.word 0xa9bf7ffe
bl _prim_js_op_eval_gc
.word 0xa8c17ffe
.word 0xd1002294
.word 0xf102081f
b.NE Label_385
.word 0x91000ed6
.word 0xf85b83b1
.word 0xf9002234
b __exception_handler_entry
Label_385:
.word 0xb9414269
cbz w9, Label_386
.word 0xf8008680
.word 0xf8008681
.word 0xb10012c8
.word 0xf85e83ac
.word 0xf9401989
.word 0xaa0903e2
.word 0xaa0803e1
.word 0xaa1303e0
.word 0xa9bf7ffe
bl _DebuggerCallEachOp
.word 0xa8c17ffe
.word 0xf85f8e81
.word 0xf85f8e80
Label_386:
.word 0x38403ec8
.word 0x9103c908
.word 0xf8685aa9
.word 0xd61f0120
.global _dispatch_table_0_50
_dispatch_table_0_50:
.word 0xa9ff0680
.word 0xd2800248
.word 0xf8008680
.word 0xf8008681
.word 0xf85b83b1
.word 0xf9002234
.word 0xaa0103e3
.word 0xaa0003e2
.word 0xaa0803e1
.word 0xaa1303e0
.word 0xa9bf7ffe
bl _js_regexp_constructor_internal_gc
.word 0xa8c17ffe
.word 0xd1002294
.word 0xd1002294
.word 0xb9414269
cbz w9, Label_387
.word 0xf8008680
.word 0xf8008681
.word 0xb1000ac8
.word 0xf85e83ac
.word 0xf9401989
.word 0xaa0903e2
.word 0xaa0803e1
.word 0xaa1303e0
.word 0xa9bf7ffe
bl _DebuggerCallEachOp
.word 0xa8c17ffe
.word 0xf85f8e81
.word 0xf85f8e80
Label_387:
.word 0x38401ec8
.word 0x9103c908
.word 0xf8685aa9
.word 0xd61f0120
.global _dispatch_table_1_50
_dispatch_table_1_50:
.word 0xaa0003e1
.word 0xf85f8e80
.global _dispatch_table_2_50
_dispatch_table_2_50:
.word 0xd2800248
.word 0xf8008680
.word 0xf8008681
.word 0xf85b83b1
.word 0xf9002234
.word 0xaa0103e3
.word 0xaa0003e2
.word 0xaa0803e1
.word 0xaa1303e0
.word 0xa9bf7ffe
bl _js_regexp_constructor_internal_gc
.word 0xa8c17ffe
.word 0xd1002294
.word 0xd1002294
.word 0xb9414269
cbz w9, Label_388
.word 0xf8008680
.word 0xf8008681
.word 0xb1000ac8
.word 0xf85e83ac
.word 0xf9401989
.word 0xaa0903e2
.word 0xaa0803e1
.word 0xaa1303e0
.word 0xa9bf7ffe
bl _DebuggerCallEachOp
.word 0xa8c17ffe
.word 0xf85f8e81
.word 0xf85f8e80
Label_388:
.word 0x38401ec8
.word 0x9103c908
.word 0xf8685aa9
.word 0xd61f0120
.global _dispatch_table_2_51
_dispatch_table_2_51:
.word 0xf8008680
.word 0xaa0103e0
.word 0xf85b83b1
.word 0xf9002234
.word 0xf8008680
.word 0xf85b83b1
.word 0xf9002234
.word 0xaa0003e1
.word 0xaa1303e0
.word 0xa9bf7ffe
bl _primjs_get_super_ctor_gc
.word 0xa8c17ffe
.word 0xd1002294
.word 0xf102081f
b.NE Label_389
.word 0x910006d6
.word 0xf85b83b1
.word 0xf9002234
b __exception_handler_entry
Label_389:
.word 0xb9414269
cbz w9, Label_390
.word 0xf8008680
.word 0xf8008681
.word 0xb1000ac8
.word 0xf85e83ac
.word 0xf9401989
.word 0xaa0903e2
.word 0xaa0803e1
.word 0xaa1303e0
.word 0xa9bf7ffe
bl _DebuggerCallEachOp
.word 0xa8c17ffe
.word 0xf85f8e81
.word 0xf85f8e80
Label_390:
.word 0x38401ec8
.word 0x9103c908
.word 0xf8685aa9
.word 0xd61f0120
.global _dispatch_table_0_51
_dispatch_table_0_51:
.word 0xf85f8e80
.global _dispatch_table_1_51
_dispatch_table_1_51:
.word 0xf8008680
.word 0xf85b83b1
.word 0xf9002234
.word 0xaa0003e1
.word 0xaa1303e0
.word 0xa9bf7ffe
bl _primjs_get_super_ctor_gc
.word 0xa8c17ffe
.word 0xd1002294
.word 0xf102081f
b.NE Label_391
.word 0x910006d6
.word 0xf85b83b1
.word 0xf9002234
b __exception_handler_entry
Label_391:
.word 0xb9414269
cbz w9, Label_392
.word 0xf8008680
.word 0xf8008681
.word 0xb1000ac8
.word 0xf85e83ac
.word 0xf9401989
.word 0xaa0903e2
.word 0xaa0803e1
.word 0xaa1303e0
.word 0xa9bf7ffe
bl _DebuggerCallEachOp
.word 0xa8c17ffe
.word 0xf85f8e81
.word 0xf85f8e80
Label_392:
.word 0x38401ec8
.word 0x9103c908
.word 0xf8685aa9
.word 0xd61f0120
.global _dispatch_table_2_52
_dispatch_table_2_52:
.word 0xf8008680
.word 0xaa0103e0
.word 0xf85b83b1
.word 0xf9002234
.word 0xaa0003f9
.word 0xf8008680
.word 0xf85b83b1
.word 0xf9002234
.word 0xaa1903e1
.word 0xaa1303e0
.word 0xa9bf7ffe
bl _LEPUS_GetPrototype
.word 0xa8c17ffe
.word 0xd1002294
.word 0xf102081f
b.NE Label_393
.word 0x910006d6
.word 0xf85b83b1
.word 0xf9002234
b __exception_handler_entry
Label_393:
.word 0xb9414269
cbz w9, Label_394
.word 0xf8008680
.word 0xf8008681
.word 0xb1000ac8
.word 0xf85e83ac
.word 0xf9401989
.word 0xaa0903e2
.word 0xaa0803e1
.word 0xaa1303e0
.word 0xa9bf7ffe
bl _DebuggerCallEachOp
.word 0xa8c17ffe
.word 0xf85f8e81
.word 0xf85f8e80
Label_394:
.word 0x38401ec8
.word 0x9103c908
.word 0xf8685aa9
.word 0xd61f0120
.global _dispatch_table_0_52
_dispatch_table_0_52:
.word 0xf85f8e80
.global _dispatch_table_1_52
_dispatch_table_1_52:
.word 0xaa0003f9
.word 0xf8008680
.word 0xf85b83b1
.word 0xf9002234
.word 0xaa1903e1
.word 0xaa1303e0
.word 0xa9bf7ffe
bl _LEPUS_GetPrototype
.word 0xa8c17ffe
.word 0xd1002294
.word 0xf102081f
b.NE Label_395
.word 0x910006d6
.word 0xf85b83b1
.word 0xf9002234
b __exception_handler_entry
Label_395:
.word 0xb9414269
cbz w9, Label_396
.word 0xf8008680
.word 0xf8008681
.word 0xb1000ac8
.word 0xf85e83ac
.word 0xf9401989
.word 0xaa0903e2
.word 0xaa0803e1
.word 0xaa1303e0
.word 0xa9bf7ffe
bl _DebuggerCallEachOp
.word 0xa8c17ffe
.word 0xf85f8e81
.word 0xf85f8e80
Label_396:
.word 0x38401ec8
.word 0x9103c908
.word 0xf8685aa9
.word 0xd61f0120
.global _dispatch_table_2_53
_dispatch_table_2_53:
.word 0xf8008680
.word 0xaa0103e0
.word 0xf85b83b1
.word 0xf9002234
.word 0xf8008680
.word 0xf85b83b1
.word 0xf9002234
.word 0xaa0003e1
.word 0xaa1303e0
.word 0xa9bf7ffe
bl _js_dynamic_import
.word 0xa8c17ffe
.word 0xd1002294
.word 0xf102081f
b.NE Label_397
.word 0x910006d6
.word 0xf85b83b1
.word 0xf9002234
b __exception_handler_entry
Label_397:
.word 0xb9414269
cbz w9, Label_398
.word 0xf8008680
.word 0xf8008681
.word 0xb1000ac8
.word 0xf85e83ac
.word 0xf9401989
.word 0xaa0903e2
.word 0xaa0803e1
.word 0xaa1303e0
.word 0xa9bf7ffe
bl _DebuggerCallEachOp
.word 0xa8c17ffe
.word 0xf85f8e81
.word 0xf85f8e80
Label_398:
.word 0x38401ec8
.word 0x9103c908
.word 0xf8685aa9
.word 0xd61f0120
.global _dispatch_table_0_53
_dispatch_table_0_53:
.word 0xf85f8e80
.global _dispatch_table_1_53
_dispatch_table_1_53:
.word 0xf8008680
.word 0xf85b83b1
.word 0xf9002234
.word 0xaa0003e1
.word 0xaa1303e0
.word 0xa9bf7ffe
bl _js_dynamic_import
.word 0xa8c17ffe
.word 0xd1002294
.word 0xf102081f
b.NE Label_399
.word 0x910006d6
.word 0xf85b83b1
.word 0xf9002234
b __exception_handler_entry
Label_399:
.word 0xb9414269
cbz w9, Label_400
.word 0xf8008680
.word 0xf8008681
.word 0xb1000ac8
.word 0xf85e83ac
.word 0xf9401989
.word 0xaa0903e2
.word 0xaa0803e1
.word 0xaa1303e0
.word 0xa9bf7ffe
bl _DebuggerCallEachOp
.word 0xa8c17ffe
.word 0xf85f8e81
.word 0xf85f8e80
Label_400:
.word 0x38401ec8
.word 0x9103c908
.word 0xf8685aa9
.word 0xd61f0120
.global _dispatch_table_0_54
_dispatch_table_0_54:
.word 0xb84012c1
.word 0xf85b83b1
.word 0xf9002234
.word 0xaa1303e0
.word 0xa9bf7ffe
bl _JS_CheckGlobalVar_GC
.word 0xa8c17ffe
.word 0x7100001f
b.GE Label_401
.word 0x910016d6
.word 0xf85b83b1
.word 0xf9002234
b __exception_handler_entry
Label_401:
.word 0xf100041f
b.NE Label_402
.word 0xb2400be0
b Label_403
Label_402:
.word 0xb27f07e0
Label_403:
.word 0xb9414269
cbz w9, Label_404
.word 0xf8008680
.word 0xf8008681
.word 0xb1001ac8
.word 0xf85e83ac
.word 0xf9401989
.word 0xaa0903e2
.word 0xaa0803e1
.word 0xaa1303e0
.word 0xa9bf7ffe
bl _DebuggerCallEachOp
.word 0xa8c17ffe
.word 0xf85f8e81
.word 0xf85f8e80
Label_404:
.word 0x38405ec8
.word 0x9103c908
.word 0xf8685aa9
.word 0xd61f0120
.global _dispatch_table_1_54
_dispatch_table_1_54:
.word 0xaa0003f9
.word 0xb84012c1
.word 0xf8008680
.word 0xf85b83b1
.word 0xf9002234
.word 0xaa1303e0
.word 0xa9bf7ffe
bl _JS_CheckGlobalVar_GC
.word 0xa8c17ffe
.word 0xd1002294
.word 0x7100001f
b.GE Label_406
.word 0xf8008699
.word 0x910016d6
.word 0xf85b83b1
.word 0xf9002234
b __exception_handler_entry
Label_406:
.word 0xf100041f
b.NE Label_407
.word 0xb2400be0
b Label_408
Label_407:
.word 0xb27f07e0
Label_408:
.word 0xaa0003e1
.word 0xaa1903e0
.word 0xb9414269
cbz w9, Label_409
.word 0xf8008680
.word 0xf8008681
.word 0xb1001ac8
.word 0xf85e83ac
.word 0xf9401989
.word 0xaa0903e2
.word 0xaa0803e1
.word 0xaa1303e0
.word 0xa9bf7ffe
bl _DebuggerCallEachOp
.word 0xa8c17ffe
.word 0xf85f8e81
.word 0xf85f8e80
Label_409:
.word 0x38405ec8
.word 0x91079108
.word 0xf8685aa9
.word 0xd61f0120
.global _dispatch_table_2_54
_dispatch_table_2_54:
.word 0xf8008680
.word 0xaa0103f9
.word 0xb84012c1
.word 0xf8008681
.word 0xf85b83b1
.word 0xf9002234
.word 0xaa1303e0
.word 0xa9bf7ffe
bl _JS_CheckGlobalVar_GC
.word 0xa8c17ffe
.word 0xd1002294
.word 0x7100001f
b.GE Label_411
.word 0xf8008699
.word 0x910016d6
.word 0xf85b83b1
.word 0xf9002234
b __exception_handler_entry
Label_411:
.word 0xf100041f
b.NE Label_412
.word 0xb2400be0
b Label_413
Label_412:
.word 0xb27f07e0
Label_413:
.word 0xaa0003e1
.word 0xaa1903e0
.word 0xb9414269
cbz w9, Label_414
.word 0xf8008680
.word 0xf8008681
.word 0xb1001ac8
.word 0xf85e83ac
.word 0xf9401989
.word 0xaa0903e2
.word 0xaa0803e1
.word 0xaa1303e0
.word 0xa9bf7ffe
bl _DebuggerCallEachOp
.word 0xa8c17ffe
.word 0xf85f8e81
.word 0xf85f8e80
Label_414:
.word 0x38405ec8
.word 0x91079108
.word 0xf8685aa9
.word 0xd61f0120
.global _dispatch_table_0_55
_dispatch_table_0_55:
.word 0xf85b83b1
.word 0xf9002234
.word 0xb84012c1
.word 0xd2800002
.word 0xd2800003
.word 0xaa1303e0
.word 0xa9bf7ffe
bl _JS_GetGlobalVarImpl_GC
.word 0xa8c17ffe
.word 0xf102081f
b.NE Label_415
.word 0x910016d6
.word 0xf85b83b1
.word 0xf9002234
b __exception_handler_entry
Label_415:
.word 0xb9414269
cbz w9, Label_416
.word 0xf8008680
.word 0xf8008681
.word 0xb1001ac8
.word 0xf85e83ac
.word 0xf9401989
.word 0xaa0903e2
.word 0xaa0803e1
.word 0xaa1303e0
.word 0xa9bf7ffe
bl _DebuggerCallEachOp
.word 0xa8c17ffe
.word 0xf85f8e81
.word 0xf85f8e80
Label_416:
.word 0x38405ec8
.word 0x9103c908
.word 0xf8685aa9
.word 0xd61f0120
.global _dispatch_table_1_55
_dispatch_table_1_55:
.word 0xf8008680
.word 0xf85b83b1
.word 0xf9002234
.word 0xb84012c1
.word 0xd2800002
.word 0xd2800003
.word 0xaa1303e0
.word 0xa9bf7ffe
bl _JS_GetGlobalVarImpl_GC
.word 0xa8c17ffe
.word 0xf102081f
b.NE Label_417
.word 0x910016d6
.word 0xf85b83b1
.word 0xf9002234
b __exception_handler_entry
Label_417:
.word 0xaa0003e1
.word 0xf85f8e80
.word 0xb9414269
cbz w9, Label_418
.word 0xf8008680
.word 0xf8008681
.word 0xb1001ac8
.word 0xf85e83ac
.word 0xf9401989
.word 0xaa0903e2
.word 0xaa0803e1
.word 0xaa1303e0
.word 0xa9bf7ffe
bl _DebuggerCallEachOp
.word 0xa8c17ffe
.word 0xf85f8e81
.word 0xf85f8e80
Label_418:
.word 0x38405ec8
.word 0x91079108
.word 0xf8685aa9
.word 0xd61f0120
.global _dispatch_table_2_55
_dispatch_table_2_55:
.word 0xa8810680
.word 0xf85b83b1
.word 0xf9002234
.word 0xb84012c1
.word 0xd2800002
.word 0xd2800003
.word 0xaa1303e0
.word 0xa9bf7ffe
bl _JS_GetGlobalVarImpl_GC
.word 0xa8c17ffe
.word 0xf102081f
b.NE Label_419
.word 0x910016d6
.word 0xf85b83b1
.word 0xf9002234
b __exception_handler_entry
Label_419:
.word 0xaa0003e1
.word 0xf85f8e80
.word 0xb9414269
cbz w9, Label_420
.word 0xf8008680
.word 0xf8008681
.word 0xb1001ac8
.word 0xf85e83ac
.word 0xf9401989
.word 0xaa0903e2
.word 0xaa0803e1
.word 0xaa1303e0
.word 0xa9bf7ffe
bl _DebuggerCallEachOp
.word 0xa8c17ffe
.word 0xf85f8e81
.word 0xf85f8e80
Label_420:
.word 0x38405ec8
.word 0x91079108
.word 0xf8685aa9
.word 0xd61f0120
.global _dispatch_table_0_56
_dispatch_table_0_56:
.word 0xf85b83b1
.word 0xf9002234
.word 0xb84012c1
.word 0xb24003e2
.word 0xd2800003
.word 0xaa1303e0
.word 0xa9bf7ffe
bl _JS_GetGlobalVarImpl_GC
.word 0xa8c17ffe
.word 0xf102081f
b.NE Label_421
.word 0x910016d6
.word 0xf85b83b1
.word 0xf9002234
b __exception_handler_entry
Label_421:
.word 0xb9414269
cbz w9, Label_422
.word 0xf8008680
.word 0xf8008681
.word 0xb1001ac8
.word 0xf85e83ac
.word 0xf9401989
.word 0xaa0903e2
.word 0xaa0803e1
.word 0xaa1303e0
.word 0xa9bf7ffe
bl _DebuggerCallEachOp
.word 0xa8c17ffe
.word 0xf85f8e81
.word 0xf85f8e80
Label_422:
.word 0x38405ec8
.word 0x9103c908
.word 0xf8685aa9
.word 0xd61f0120
.global _dispatch_table_1_56
_dispatch_table_1_56:
.word 0xf8008680
.word 0xf85b83b1
.word 0xf9002234
.word 0xb84012c1
.word 0xb24003e2
.word 0xd2800003
.word 0xaa1303e0
.word 0xa9bf7ffe
bl _JS_GetGlobalVarImpl_GC
.word 0xa8c17ffe
.word 0xf102081f
b.NE Label_423
.word 0x910016d6
.word 0xf85b83b1
.word 0xf9002234
b __exception_handler_entry
Label_423:
.word 0xaa0003e1
.word 0xf85f8e80
.word 0xb9414269
cbz w9, Label_424
.word 0xf8008680
.word 0xf8008681
.word 0xb1001ac8
.word 0xf85e83ac
.word 0xf9401989
.word 0xaa0903e2
.word 0xaa0803e1
.word 0xaa1303e0
.word 0xa9bf7ffe
bl _DebuggerCallEachOp
.word 0xa8c17ffe
.word 0xf85f8e81
.word 0xf85f8e80
Label_424:
.word 0x38405ec8
.word 0x91079108
.word 0xf8685aa9
.word 0xd61f0120
.global _dispatch_table_2_56
_dispatch_table_2_56:
.word 0xa8810680
.word 0xf85b83b1
.word 0xf9002234
.word 0xb84012c1
.word 0xb24003e2
.word 0xd2800003
.word 0xaa1303e0
.word 0xa9bf7ffe
bl _JS_GetGlobalVarImpl_GC
.word 0xa8c17ffe
.word 0xf102081f
b.NE Label_425
.word 0x910016d6
.word 0xf85b83b1
.word 0xf9002234
b __exception_handler_entry
Label_425:
.word 0xaa0003e1
.word 0xf85f8e80
.word 0xb9414269
cbz w9, Label_426
.word 0xf8008680
.word 0xf8008681
.word 0xb1001ac8
.word 0xf85e83ac
.word 0xf9401989
.word 0xaa0903e2
.word 0xaa0803e1
.word 0xaa1303e0
.word 0xa9bf7ffe
bl _DebuggerCallEachOp
.word 0xa8c17ffe
.word 0xf85f8e81
.word 0xf85f8e80
Label_426:
.word 0x38405ec8
.word 0x91079108
.word 0xf8685aa9
.word 0xd61f0120
.global _dispatch_table_0_57
_dispatch_table_0_57:
.word 0xd2800003
.word 0xf85f8e80
.word 0xb84012c1
.word 0xf8008680
.word 0xf85b83b1
.word 0xf9002234
.word 0xaa0003e2
.word 0xaa1303e0
.word 0xa9bf7ffe
bl _LEPUS_SetGlobalVar
.word 0xa8c17ffe
.word 0xd1002294
.word 0x7100001f
b.GE Label_427
.word 0x910016d6
.word 0xf85b83b1
.word 0xf9002234
b __exception_handler_entry
Label_427:
.word 0xb9414269
cbz w9, Label_428
.word 0xf8008680
.word 0xf8008681
.word 0xb1001ac8
.word 0xf85e83ac
.word 0xf9401989
.word 0xaa0903e2
.word 0xaa0803e1
.word 0xaa1303e0
.word 0xa9bf7ffe
bl _DebuggerCallEachOp
.word 0xa8c17ffe
.word 0xf85f8e81
.word 0xf85f8e80
Label_428:
.word 0x38405ec8
.word 0x91000108
.word 0xf8685aa9
.word 0xd61f0120
.global _dispatch_table_1_57
_dispatch_table_1_57:
.word 0xd2800003
.word 0xb84012c1
.word 0xf8008680
.word 0xf85b83b1
.word 0xf9002234
.word 0xaa0003e2
.word 0xaa1303e0
.word 0xa9bf7ffe
bl _LEPUS_SetGlobalVar
.word 0xa8c17ffe
.word 0xd1002294
.word 0x7100001f
b.GE Label_429
.word 0x910016d6
.word 0xf85b83b1
.word 0xf9002234
b __exception_handler_entry
Label_429:
.word 0xb9414269
cbz w9, Label_430
.word 0xf8008680
.word 0xf8008681
.word 0xb1001ac8
.word 0xf85e83ac
.word 0xf9401989
.word 0xaa0903e2
.word 0xaa0803e1
.word 0xaa1303e0
.word 0xa9bf7ffe
bl _DebuggerCallEachOp
.word 0xa8c17ffe
.word 0xf85f8e81
.word 0xf85f8e80
Label_430:
.word 0x38405ec8
.word 0x91000108
.word 0xf8685aa9
.word 0xd61f0120
.global _dispatch_table_2_57
_dispatch_table_2_57:
.word 0xd2800003
.word 0xaa0003f9
.word 0xb84012c8
.word 0xf8008680
.word 0xf8008681
.word 0xf85b83b1
.word 0xf9002234
.word 0xaa0103e2
.word 0xaa0803e1
.word 0xaa1303e0
.word 0xa9bf7ffe
bl _LEPUS_SetGlobalVar
.word 0xa8c17ffe
.word 0xd1002294
.word 0xd1002294
.word 0x7100001f
b.GE Label_432
.word 0xf8008699
.word 0x910016d6
.word 0xf85b83b1
.word 0xf9002234
b __exception_handler_entry
Label_432:
.word 0xaa1903e0
.word 0xb9414269
cbz w9, Label_433
.word 0xf8008680
.word 0xf8008681
.word 0xb1001ac8
.word 0xf85e83ac
.word 0xf9401989
.word 0xaa0903e2
.word 0xaa0803e1
.word 0xaa1303e0
.word 0xa9bf7ffe
bl _DebuggerCallEachOp
.word 0xa8c17ffe
.word 0xf85f8e81
.word 0xf85f8e80
Label_433:
.word 0x38405ec8
.word 0x9103c908
.word 0xf8685aa9
.word 0xd61f0120
.global _dispatch_table_0_58
_dispatch_table_0_58:
.word 0xb24003e3
.word 0xf85f8e80
.word 0xb84012c1
.word 0xf85b83b1
.word 0xf9002234
.word 0xaa0003e2
.word 0xaa1303e0
.word 0xa9bf7ffe
bl _LEPUS_SetGlobalVar
.word 0xa8c17ffe
.word 0x7100001f
b.GE Label_434
.word 0x910016d6
.word 0xf85b83b1
.word 0xf9002234
b __exception_handler_entry
Label_434:
.word 0xb9414269
cbz w9, Label_435
.word 0xf8008680
.word 0xf8008681
.word 0xb1001ac8
.word 0xf85e83ac
.word 0xf9401989
.word 0xaa0903e2
.word 0xaa0803e1
.word 0xaa1303e0
.word 0xa9bf7ffe
bl _DebuggerCallEachOp
.word 0xa8c17ffe
.word 0xf85f8e81
.word 0xf85f8e80
Label_435:
.word 0x38405ec8
.word 0x91000108
.word 0xf8685aa9
.word 0xd61f0120
.global _dispatch_table_1_58
_dispatch_table_1_58:
.word 0xb24003e3
.word 0xb84012c1
.word 0xf8008680
.word 0xf85b83b1
.word 0xf9002234
.word 0xaa0003e2
.word 0xaa1303e0
.word 0xa9bf7ffe
bl _LEPUS_SetGlobalVar
.word 0xa8c17ffe
.word 0xd1002294
.word 0x7100001f
b.GE Label_436
.word 0x910016d6
.word 0xf85b83b1
.word 0xf9002234
b __exception_handler_entry
Label_436:
.word 0xb9414269
cbz w9, Label_437
.word 0xf8008680
.word 0xf8008681
.word 0xb1001ac8
.word 0xf85e83ac
.word 0xf9401989
.word 0xaa0903e2
.word 0xaa0803e1
.word 0xaa1303e0
.word 0xa9bf7ffe
bl _DebuggerCallEachOp
.word 0xa8c17ffe
.word 0xf85f8e81
.word 0xf85f8e80
Label_437:
.word 0x38405ec8
.word 0x91000108
.word 0xf8685aa9
.word 0xd61f0120
.global _dispatch_table_2_58
_dispatch_table_2_58:
.word 0xb24003e3
.word 0xaa0003f9
.word 0xb84012c8
.word 0xf8008680
.word 0xf8008681
.word 0xf85b83b1
.word 0xf9002234
.word 0xaa0103e2
.word 0xaa0803e1
.word 0xaa1303e0
.word 0xa9bf7ffe
bl _LEPUS_SetGlobalVar
.word 0xa8c17ffe
.word 0xd1002294
.word 0xd1002294
.word 0x7100001f
b.GE Label_439
.word 0xf8008699
.word 0x910016d6
.word 0xf85b83b1
.word 0xf9002234
b __exception_handler_entry
Label_439:
.word 0xaa1903e0
.word 0xb9414269
cbz w9, Label_440
.word 0xf8008680
.word 0xf8008681
.word 0xb1001ac8
.word 0xf85e83ac
.word 0xf9401989
.word 0xaa0903e2
.word 0xaa0803e1
.word 0xaa1303e0
.word 0xa9bf7ffe
bl _DebuggerCallEachOp
.word 0xa8c17ffe
.word 0xf85f8e81
.word 0xf85f8e80
Label_440:
.word 0x38405ec8
.word 0x9103c908
.word 0xf8685aa9
.word 0xd61f0120
.global _dispatch_table_0_59
_dispatch_table_0_59:
.word 0xa9ff0680
.word 0xb84012c8
.word 0xb27f07e9
.word 0xeb09001f
b.NE Label_441
.word 0xf8008680
.word 0xf8008681
.word 0xf85b83b1
.word 0xf9002234
.word 0xaa0803e1
.word 0xaa1303e0
.word 0xa9bf7ffe
bl _JS_ThrowReferenceErrorNotDefined_GC
.word 0xa8c17ffe
.word 0xd1002294
.word 0xd1002294
.word 0xf85b83b1
.word 0xf9002234
.word 0x910016d6
b __exception_handler_entry
Label_441:
.word 0xb27f03e9
.word 0xf8008680
.word 0xf8008681
.word 0xf85b83b1
.word 0xf9002234
.word 0xaa0903e3
.word 0xaa0103e2
.word 0xaa0803e1
.word 0xaa1303e0
.word 0xa9bf7ffe
bl _LEPUS_SetGlobalVar
.word 0xa8c17ffe
.word 0xd1002294
.word 0xd1002294
.word 0x7100001f
b.GE Label_442
.word 0x910016d6
.word 0xf85b83b1
.word 0xf9002234
b __exception_handler_entry
Label_442:
.word 0xb9414269
cbz w9, Label_443
.word 0xf8008680
.word 0xf8008681
.word 0xb1001ac8
.word 0xf85e83ac
.word 0xf9401989
.word 0xaa0903e2
.word 0xaa0803e1
.word 0xaa1303e0
.word 0xa9bf7ffe
bl _DebuggerCallEachOp
.word 0xa8c17ffe
.word 0xf85f8e81
.word 0xf85f8e80
Label_443:
.word 0x38405ec8
.word 0x91000108
.word 0xf8685aa9
.word 0xd61f0120
.global _dispatch_table_1_59
_dispatch_table_1_59:
.word 0xaa0003e1
.word 0xf85f8e80
.global _dispatch_table_2_59
_dispatch_table_2_59:
.word 0xb84012c8
.word 0xb27f07e9
.word 0xeb09001f
b.NE Label_444
.word 0xf8008680
.word 0xf8008681
.word 0xf85b83b1
.word 0xf9002234
.word 0xaa0803e1
.word 0xaa1303e0
.word 0xa9bf7ffe
bl _JS_ThrowReferenceErrorNotDefined_GC
.word 0xa8c17ffe
.word 0xd1002294
.word 0xd1002294
.word 0xf85b83b1
.word 0xf9002234
.word 0x910016d6
b __exception_handler_entry
Label_444:
.word 0xb27f03e9
.word 0xf8008680
.word 0xf8008681
.word 0xf85b83b1
.word 0xf9002234
.word 0xaa0903e3
.word 0xaa0103e2
.word 0xaa0803e1
.word 0xaa1303e0
.word 0xa9bf7ffe
bl _LEPUS_SetGlobalVar
.word 0xa8c17ffe
.word 0xd1002294
.word 0xd1002294
.word 0x7100001f
b.GE Label_445
.word 0x910016d6
.word 0xf85b83b1
.word 0xf9002234
b __exception_handler_entry
Label_445:
.word 0xb9414269
cbz w9, Label_446
.word 0xf8008680
.word 0xf8008681
.word 0xb1001ac8
.word 0xf85e83ac
.word 0xf9401989
.word 0xaa0903e2
.word 0xaa0803e1
.word 0xaa1303e0
.word 0xa9bf7ffe
bl _DebuggerCallEachOp
.word 0xa8c17ffe
.word 0xf85f8e81
.word 0xf85f8e80
Label_446:
.word 0x38405ec8
.word 0x91000108
.word 0xf8685aa9
.word 0xd61f0120
.global _dispatch_table_0_60
_dispatch_table_0_60:
.word 0xa9ff0680
.word 0xf100481f
b.NE Label_447
.word 0xf8008680
.word 0xf8008681
.word 0xf85b83b1
.word 0xf9002234
.word 0xaa1303e0
.word 0xa9bf7ffe
bl _js_value_to_atom_gc
.word 0xa8c17ffe
.word 0xf100001f
b.EQ Label_448
.word 0xaa0003f9
.word 0xf85b83b1
.word 0xf9002234
.word 0xaa0003e1
.word 0xaa1303e0
.word 0xa9bf7ffe
bl _JS_ThrowReferenceErrorNotDefined_GC
.word 0xa8c17ffe
Label_448:
.word 0xf85b83b1
.word 0xf9002234
.word 0x910006d6
b __exception_handler_entry
Label_447:
.word 0xaa0103f9
.word 0xf8008680
.word 0xf8008681
.word 0xf85b83b1
.word 0xf9002234
.word 0xaa0103e2
.word 0xaa0003e1
.word 0xaa1303e0
.word 0xa9bf7ffe
bl _JS_GetPropertyValue_GC
.word 0xa8c17ffe
.word 0xd1002294
.word 0xf102081f
b.NE Label_449
.word 0x910006d6
.word 0xf85b83b1
.word 0xf9002234
b __exception_handler_entry
Label_449:
.word 0xaa0003e1
.word 0xaa1903e0
.word 0xb9414269
cbz w9, Label_450
.word 0xf8008680
.word 0xf8008681
.word 0xb1000ac8
.word 0xf85e83ac
.word 0xf9401989
.word 0xaa0903e2
.word 0xaa0803e1
.word 0xaa1303e0
.word 0xa9bf7ffe
bl _DebuggerCallEachOp
.word 0xa8c17ffe
.word 0xf85f8e81
.word 0xf85f8e80
Label_450:
.word 0x38401ec8
.word 0x91079108
.word 0xf8685aa9
.word 0xd61f0120
.global _dispatch_table_1_60
_dispatch_table_1_60:
.word 0xaa0003e1
.word 0xf85f8e80
.global _dispatch_table_2_60
_dispatch_table_2_60:
.word 0xf100481f
b.NE Label_451
.word 0xf8008680
.word 0xf8008681
.word 0xf85b83b1
.word 0xf9002234
.word 0xaa1303e0
.word 0xa9bf7ffe
bl _js_value_to_atom_gc
.word 0xa8c17ffe
.word 0xf100001f
b.EQ Label_452
.word 0xaa0003f9
.word 0xf85b83b1
.word 0xf9002234
.word 0xaa0003e1
.word 0xaa1303e0
.word 0xa9bf7ffe
bl _JS_ThrowReferenceErrorNotDefined_GC
.word 0xa8c17ffe
Label_452:
.word 0xf85b83b1
.word 0xf9002234
.word 0x910006d6
b __exception_handler_entry
Label_451:
.word 0xaa0103f9
.word 0xf8008680
.word 0xf8008681
.word 0xf85b83b1
.word 0xf9002234
.word 0xaa0103e2
.word 0xaa0003e1
.word 0xaa1303e0
.word 0xa9bf7ffe
bl _JS_GetPropertyValue_GC
.word 0xa8c17ffe
.word 0xd1002294
.word 0xf102081f
b.NE Label_453
.word 0x910006d6
.word 0xf85b83b1
.word 0xf9002234
b __exception_handler_entry
Label_453:
.word 0xaa0003e1
.word 0xaa1903e0
.word 0xb9414269
cbz w9, Label_454
.word 0xf8008680
.word 0xf8008681
.word 0xb1000ac8
.word 0xf85e83ac
.word 0xf9401989
.word 0xaa0903e2
.word 0xaa0803e1
.word 0xaa1303e0
.word 0xa9bf7ffe
bl _DebuggerCallEachOp
.word 0xa8c17ffe
.word 0xf85f8e81
.word 0xf85f8e80
Label_454:
.word 0x38401ec8
.word 0x91079108
.word 0xf8685aa9
.word 0xd61f0120
.global _dispatch_table_0_61
_dispatch_table_0_61:
.word 0xa9ff0680
.word 0xf85f8e99
.word 0xf1004b3f
b.NE Label_455
.word 0xf85e83ac
.word 0xf9401988
.word 0x39401508
.word 0x7200011f
b.EQ Label_456
.word 0xf8008699
.word 0xf8008680
.word 0xf8008681
.word 0xf85b83b1
.word 0xf9002234
.word 0xaa0003e1
.word 0xaa1303e0
.word 0xa9bf7ffe
bl _js_value_to_atom_gc
.word 0xa8c17ffe
.word 0xf100001f
b.EQ Label_458
.word 0xaa0003f9
.word 0xf85b83b1
.word 0xf9002234
.word 0xaa0003e1
.word 0xaa1303e0
.word 0xa9bf7ffe
bl _JS_ThrowReferenceErrorNotDefined_GC
.word 0xa8c17ffe
Label_458:
.word 0xf85b83b1
.word 0xf9002234
.word 0x910006d6
b __exception_handler_entry
b Label_457
Label_456:
.word 0xf9406679
Label_457:
Label_455:
.word 0xb27103e4
.word 0xf8008699
.word 0xf8008680
.word 0xf8008681
.word 0xf85b83b1
.word 0xf9002234
.word 0xaa0103e3
.word 0xaa0003e2
.word 0xaa1903e1
.word 0xaa1303e0
.word 0xa9bf7ffe
bl _JS_SetPropertyValue_GC
.word 0xa8c17ffe
.word 0xd1002294
.word 0xd1002294
.word 0xd1002294
.word 0xf102081f
b.NE Label_459
.word 0x910006d6
.word 0xf85b83b1
.word 0xf9002234
b __exception_handler_entry
Label_459:
.word 0xb9414269
cbz w9, Label_460
.word 0xf8008680
.word 0xf8008681
.word 0xb1000ac8
.word 0xf85e83ac
.word 0xf9401989
.word 0xaa0903e2
.word 0xaa0803e1
.word 0xaa1303e0
.word 0xa9bf7ffe
bl _DebuggerCallEachOp
.word 0xa8c17ffe
.word 0xf85f8e81
.word 0xf85f8e80
Label_460:
.word 0x38401ec8
.word 0x91000108
.word 0xf8685aa9
.word 0xd61f0120
.global _dispatch_table_1_61
_dispatch_table_1_61:
.word 0xaa0003e1
.word 0xf85f8e80
.global _dispatch_table_2_61
_dispatch_table_2_61:
.word 0xf85f8e99
.word 0xf1004b3f
b.NE Label_461
.word 0xf85e83ac
.word 0xf9401988
.word 0x39401508
.word 0x7200011f
b.EQ Label_462
.word 0xf8008699
.word 0xf8008680
.word 0xf8008681
.word 0xf85b83b1
.word 0xf9002234
.word 0xaa0003e1
.word 0xaa1303e0
.word 0xa9bf7ffe
bl _js_value_to_atom_gc
.word 0xa8c17ffe
.word 0xf100001f
b.EQ Label_464
.word 0xaa0003f9
.word 0xf85b83b1
.word 0xf9002234
.word 0xaa0003e1
.word 0xaa1303e0
.word 0xa9bf7ffe
bl _JS_ThrowReferenceErrorNotDefined_GC
.word 0xa8c17ffe
Label_464:
.word 0xf85b83b1
.word 0xf9002234
.word 0x910006d6
b __exception_handler_entry
b Label_463
Label_462:
.word 0xf9406679
Label_463:
Label_461:
.word 0xb27103e4
.word 0xf8008699
.word 0xf8008680
.word 0xf8008681
.word 0xf85b83b1
.word 0xf9002234
.word 0xaa0103e3
.word 0xaa0003e2
.word 0xaa1903e1
.word 0xaa1303e0
.word 0xa9bf7ffe
bl _JS_SetPropertyValue_GC
.word 0xa8c17ffe
.word 0xd1002294
.word 0xd1002294
.word 0xd1002294
.word 0xf102081f
b.NE Label_465
.word 0x910006d6
.word 0xf85b83b1
.word 0xf9002234
b __exception_handler_entry
Label_465:
.word 0xb9414269
cbz w9, Label_466
.word 0xf8008680
.word 0xf8008681
.word 0xb1000ac8
.word 0xf85e83ac
.word 0xf9401989
.word 0xaa0903e2
.word 0xaa0803e1
.word 0xaa1303e0
.word 0xa9bf7ffe
bl _DebuggerCallEachOp
.word 0xa8c17ffe
.word 0xf85f8e81
.word 0xf85f8e80
Label_466:
.word 0x38401ec8
.word 0x91000108
.word 0xf8685aa9
.word 0xd61f0120
.global _dispatch_table_0_62
_dispatch_table_0_62:
.word 0xb84012c1
.word 0x394016c2
.word 0xf85b83b1
.word 0xf9002234
.word 0xaa1303e0
.word 0xa9bf7ffe
bl _JS_DefineGlobalVar_GC
.word 0xa8c17ffe
.word 0x7100001f
b.GE Label_467
.word 0x91001ad6
.word 0xf85b83b1
.word 0xf9002234
b __exception_handler_entry
Label_467:
.word 0xb9414269
cbz w9, Label_468
.word 0xf8008680
.word 0xf8008681
.word 0xb1001ec8
.word 0xf85e83ac
.word 0xf9401989
.word 0xaa0903e2
.word 0xaa0803e1
.word 0xaa1303e0
.word 0xa9bf7ffe
bl _DebuggerCallEachOp
.word 0xa8c17ffe
.word 0xf85f8e81
.word 0xf85f8e80
Label_468:
.word 0x38406ec8
.word 0x91000108
.word 0xf8685aa9
.word 0xd61f0120
.global _dispatch_table_1_62
_dispatch_table_1_62:
.word 0xaa0003f9
.word 0xb84012c1
.word 0xf8008680
.word 0x394016c2
.word 0xf85b83b1
.word 0xf9002234
.word 0xaa1303e0
.word 0xa9bf7ffe
bl _JS_DefineGlobalVar_GC
.word 0xa8c17ffe
.word 0xd1002294
.word 0x7100001f
b.GE Label_470
.word 0xf8008699
.word 0x91001ad6
.word 0xf85b83b1
.word 0xf9002234
b __exception_handler_entry
Label_470:
.word 0xaa1903e0
.word 0xb9414269
cbz w9, Label_471
.word 0xf8008680
.word 0xf8008681
.word 0xb1001ec8
.word 0xf85e83ac
.word 0xf9401989
.word 0xaa0903e2
.word 0xaa0803e1
.word 0xaa1303e0
.word 0xa9bf7ffe
bl _DebuggerCallEachOp
.word 0xa8c17ffe
.word 0xf85f8e81
.word 0xf85f8e80
Label_471:
.word 0x38406ec8
.word 0x9103c908
.word 0xf8685aa9
.word 0xd61f0120
.global _dispatch_table_2_62
_dispatch_table_2_62:
.word 0xf8008680
.word 0xaa0103f9
.word 0xb84012c1
.word 0x394016c2
.word 0xf8008681
.word 0xf85b83b1
.word 0xf9002234
.word 0xaa1303e0
.word 0xa9bf7ffe
bl _JS_DefineGlobalVar_GC
.word 0xa8c17ffe
.word 0xd1002294
.word 0x7100001f
b.GE Label_473
.word 0xf8008699
.word 0x91001ad6
.word 0xf85b83b1
.word 0xf9002234
b __exception_handler_entry
Label_473:
.word 0xaa1903e1
.word 0xf85f8e80
.word 0xb9414269
cbz w9, Label_474
.word 0xf8008680
.word 0xf8008681
.word 0xb1001ec8
.word 0xf85e83ac
.word 0xf9401989
.word 0xaa0903e2
.word 0xaa0803e1
.word 0xaa1303e0
.word 0xa9bf7ffe
bl _DebuggerCallEachOp
.word 0xa8c17ffe
.word 0xf85f8e81
.word 0xf85f8e80
Label_474:
.word 0x38406ec8
.word 0x91079108
.word 0xf8685aa9
.word 0xd61f0120
.global _dispatch_table_0_63
_dispatch_table_0_63:
.word 0xb84012c1
.word 0x394016c2
.word 0xf85b83b1
.word 0xf9002234
.word 0xaa1303e0
.word 0xa9bf7ffe
bl _JS_CheckDefineGlobalVar_GC
.word 0xa8c17ffe
.word 0x7100001f
b.GE Label_475
.word 0x91001ad6
.word 0xf85b83b1
.word 0xf9002234
b __exception_handler_entry
Label_475:
.word 0xb9414269
cbz w9, Label_476
.word 0xf8008680
.word 0xf8008681
.word 0xb1001ec8
.word 0xf85e83ac
.word 0xf9401989
.word 0xaa0903e2
.word 0xaa0803e1
.word 0xaa1303e0
.word 0xa9bf7ffe
bl _DebuggerCallEachOp
.word 0xa8c17ffe
.word 0xf85f8e81
.word 0xf85f8e80
Label_476:
.word 0x38406ec8
.word 0x91000108
.word 0xf8685aa9
.word 0xd61f0120
.global _dispatch_table_1_63
_dispatch_table_1_63:
.word 0xaa0003f9
.word 0xb84012c1
.word 0x394016c2
.word 0xf8008680
.word 0xf85b83b1
.word 0xf9002234
.word 0xaa1303e0
.word 0xa9bf7ffe
bl _JS_CheckDefineGlobalVar_GC
.word 0xa8c17ffe
.word 0xd1002294
.word 0x7100001f
b.GE Label_478
.word 0xf8008699
.word 0x91001ad6
.word 0xf85b83b1
.word 0xf9002234
b __exception_handler_entry
Label_478:
.word 0xaa1903e0
.word 0xb9414269
cbz w9, Label_479
.word 0xf8008680
.word 0xf8008681
.word 0xb1001ec8
.word 0xf85e83ac
.word 0xf9401989
.word 0xaa0903e2
.word 0xaa0803e1
.word 0xaa1303e0
.word 0xa9bf7ffe
bl _DebuggerCallEachOp
.word 0xa8c17ffe
.word 0xf85f8e81
.word 0xf85f8e80
Label_479:
.word 0x38406ec8
.word 0x9103c908
.word 0xf8685aa9
.word 0xd61f0120
.global _dispatch_table_2_63
_dispatch_table_2_63:
.word 0xf8008680
.word 0xaa0103f9
.word 0xb84012c1
.word 0x394016c2
.word 0xf8008681
.word 0xf85b83b1
.word 0xf9002234
.word 0xaa1303e0
.word 0xa9bf7ffe
bl _JS_CheckDefineGlobalVar_GC
.word 0xa8c17ffe
.word 0xd1002294
.word 0x7100001f
b.GE Label_481
.word 0xf8008699
.word 0x91001ad6
.word 0xf85b83b1
.word 0xf9002234
b __exception_handler_entry
Label_481:
.word 0xaa1903e1
.word 0xf85f8e80
.word 0xb9414269
cbz w9, Label_482
.word 0xf8008680
.word 0xf8008681
.word 0xb1001ec8
.word 0xf85e83ac
.word 0xf9401989
.word 0xaa0903e2
.word 0xaa0803e1
.word 0xaa1303e0
.word 0xa9bf7ffe
bl _DebuggerCallEachOp
.word 0xa8c17ffe
.word 0xf85f8e81
.word 0xf85f8e80
Label_482:
.word 0x38406ec8
.word 0x91079108
.word 0xf8685aa9
.word 0xd61f0120
.global _dispatch_table_2_64
_dispatch_table_2_64:
.word 0xf8008680
.word 0xaa0103e0
.word 0xf85b83b1
.word 0xf9002234
.word 0xaa0003f9
.word 0xb84012c1
.word 0x394016c3
.word 0xf8008680
.word 0xf85b83b1
.word 0xf9002234
.word 0xaa0003e2
.word 0xaa1303e0
.word 0xa9bf7ffe
bl _JS_DefineGlobalFunction_GC
.word 0xa8c17ffe
.word 0xf100001f
b.GE Label_484
.word 0xd1002294
.word 0xf8008699
.word 0x91001ad6
.word 0xf85b83b1
.word 0xf9002234
b __exception_handler_entry
Label_484:
.word 0xd1002294
.word 0xb9414269
cbz w9, Label_485
.word 0xf8008680
.word 0xf8008681
.word 0xb1001ec8
.word 0xf85e83ac
.word 0xf9401989
.word 0xaa0903e2
.word 0xaa0803e1
.word 0xaa1303e0
.word 0xa9bf7ffe
bl _DebuggerCallEachOp
.word 0xa8c17ffe
.word 0xf85f8e81
.word 0xf85f8e80
Label_485:
.word 0x38406ec8
.word 0x91000108
.word 0xf8685aa9
.word 0xd61f0120
.global _dispatch_table_0_64
_dispatch_table_0_64:
.word 0xf85f8e80
.global _dispatch_table_1_64
_dispatch_table_1_64:
.word 0xaa0003f9
.word 0xb84012c1
.word 0x394016c3
.word 0xf8008680
.word 0xf85b83b1
.word 0xf9002234
.word 0xaa0003e2
.word 0xaa1303e0
.word 0xa9bf7ffe
bl _JS_DefineGlobalFunction_GC
.word 0xa8c17ffe
.word 0xf100001f
b.GE Label_487
.word 0xd1002294
.word 0xf8008699
.word 0x91001ad6
.word 0xf85b83b1
.word 0xf9002234
b __exception_handler_entry
Label_487:
.word 0xd1002294
.word 0xb9414269
cbz w9, Label_488
.word 0xf8008680
.word 0xf8008681
.word 0xb1001ec8
.word 0xf85e83ac
.word 0xf9401989
.word 0xaa0903e2
.word 0xaa0803e1
.word 0xaa1303e0
.word 0xa9bf7ffe
bl _DebuggerCallEachOp
.word 0xa8c17ffe
.word 0xf85f8e81
.word 0xf85f8e80
Label_488:
.word 0x38406ec8
.word 0x91000108
.word 0xf8685aa9
.word 0xd61f0120
.global _dispatch_table_0_65
_dispatch_table_0_65:
.word 0xf85f8e80
.word 0xaa0003f9
.word 0xf8008680
.word 0xb84012c2
.word 0xd2800003
.word 0xd2800004
.word 0xf85b83b1
.word 0xf9002234
.word 0xaa0403e5
.word 0xaa0303e4
.word 0xaa0003e3
.word 0xaa0003e1
.word 0xaa1303e0
.word 0xa9bf7ffe
bl _JS_GetPropertyInternalImpl_GC
.word 0xa8c17ffe
.word 0xd1002294
.word 0xf102081f
b.NE Label_490
.word 0xf8008699
.word 0x910016d6
.word 0xf85b83b1
.word 0xf9002234
b __exception_handler_entry
Label_490:
.word 0xb9414269
cbz w9, Label_491
.word 0xf8008680
.word 0xf8008681
.word 0xb1001ac8
.word 0xf85e83ac
.word 0xf9401989
.word 0xaa0903e2
.word 0xaa0803e1
.word 0xaa1303e0
.word 0xa9bf7ffe
bl _DebuggerCallEachOp
.word 0xa8c17ffe
.word 0xf85f8e81
.word 0xf85f8e80
Label_491:
.word 0x38405ec8
.word 0x9103c908
.word 0xf8685aa9
.word 0xd61f0120
.global _dispatch_table_1_65
_dispatch_table_1_65:
.word 0xaa0003f9
.word 0xf8008680
.word 0xb84012c2
.word 0xd2800003
.word 0xd2800004
.word 0xf85b83b1
.word 0xf9002234
.word 0xaa0403e5
.word 0xaa0303e4
.word 0xaa0003e3
.word 0xaa0003e1
.word 0xaa1303e0
.word 0xa9bf7ffe
bl _JS_GetPropertyInternalImpl_GC
.word 0xa8c17ffe
.word 0xd1002294
.word 0xf102081f
b.NE Label_493
.word 0xf8008699
.word 0x910016d6
.word 0xf85b83b1
.word 0xf9002234
b __exception_handler_entry
Label_493:
.word 0xb9414269
cbz w9, Label_494
.word 0xf8008680
.word 0xf8008681
.word 0xb1001ac8
.word 0xf85e83ac
.word 0xf9401989
.word 0xaa0903e2
.word 0xaa0803e1
.word 0xaa1303e0
.word 0xa9bf7ffe
bl _DebuggerCallEachOp
.word 0xa8c17ffe
.word 0xf85f8e81
.word 0xf85f8e80
Label_494:
.word 0x38405ec8
.word 0x9103c908
.word 0xf8685aa9
.word 0xd61f0120
.global _dispatch_table_2_65
_dispatch_table_2_65:
.word 0xf8008680
.word 0xaa0103f9
.word 0xf8008681
.word 0xb84012c2
.word 0xd2800003
.word 0xd2800004
.word 0xf85b83b1
.word 0xf9002234
.word 0xaa0403e5
.word 0xaa0303e4
.word 0xaa0103e3
.word 0xaa1303e0
.word 0xa9bf7ffe
bl _JS_GetPropertyInternalImpl_GC
.word 0xa8c17ffe
.word 0xd1002294
.word 0xf102081f
b.NE Label_496
.word 0xf8008699
.word 0x910016d6
.word 0xf85b83b1
.word 0xf9002234
b __exception_handler_entry
Label_496:
.word 0xaa0003f9
.word 0xaa1903e1
.word 0xf85f8e80
.word 0xb9414269
cbz w9, Label_497
.word 0xf8008680
.word 0xf8008681
.word 0xb1001ac8
.word 0xf85e83ac
.word 0xf9401989
.word 0xaa0903e2
.word 0xaa0803e1
.word 0xaa1303e0
.word 0xa9bf7ffe
bl _DebuggerCallEachOp
.word 0xa8c17ffe
.word 0xf85f8e81
.word 0xf85f8e80
Label_497:
.word 0x38405ec8
.word 0x91079108
.word 0xf8685aa9
.word 0xd61f0120
.global _dispatch_table_2_66
_dispatch_table_2_66:
.word 0xf8008680
.word 0xaa0103e0
.word 0xf85b83b1
.word 0xf9002234
.word 0xb84012c2
.word 0xaa0003f9
.word 0xf8008680
.word 0xf85b83b1
.word 0xf9002234
.word 0xd2800004
.word 0xd2800005
.word 0xaa0003e3
.word 0xaa0003e1
.word 0xaa1303e0
.word 0xa9bf7ffe
bl _JS_GetPropertyInternalImpl_GC
.word 0xa8c17ffe
.word 0xd1002294
.word 0xf102081f
b.NE Label_499
.word 0xf8008699
.word 0x910016d6
.word 0xf85b83b1
.word 0xf9002234
b __exception_handler_entry
Label_499:
.word 0xaa0003e1
.word 0xaa1903e0
.word 0xb9414269
cbz w9, Label_500
.word 0xf8008680
.word 0xf8008681
.word 0xb1001ac8
.word 0xf85e83ac
.word 0xf9401989
.word 0xaa0903e2
.word 0xaa0803e1
.word 0xaa1303e0
.word 0xa9bf7ffe
bl _DebuggerCallEachOp
.word 0xa8c17ffe
.word 0xf85f8e81
.word 0xf85f8e80
Label_500:
.word 0x38405ec8
.word 0x91079108
.word 0xf8685aa9
.word 0xd61f0120
.global _dispatch_table_0_66
_dispatch_table_0_66:
.word 0xf85f8e80
.global _dispatch_table_1_66
_dispatch_table_1_66:
.word 0xb84012c2
.word 0xaa0003f9
.word 0xf8008680
.word 0xf85b83b1
.word 0xf9002234
.word 0xd2800004
.word 0xd2800005
.word 0xaa0003e3
.word 0xaa0003e1
.word 0xaa1303e0
.word 0xa9bf7ffe
bl _JS_GetPropertyInternalImpl_GC
.word 0xa8c17ffe
.word 0xd1002294
.word 0xf102081f
b.NE Label_502
.word 0xf8008699
.word 0x910016d6
.word 0xf85b83b1
.word 0xf9002234
b __exception_handler_entry
Label_502:
.word 0xaa0003e1
.word 0xaa1903e0
.word 0xb9414269
cbz w9, Label_503
.word 0xf8008680
.word 0xf8008681
.word 0xb1001ac8
.word 0xf85e83ac
.word 0xf9401989
.word 0xaa0903e2
.word 0xaa0803e1
.word 0xaa1303e0
.word 0xa9bf7ffe
bl _DebuggerCallEachOp
.word 0xa8c17ffe
.word 0xf85f8e81
.word 0xf85f8e80
Label_503:
.word 0x38405ec8
.word 0x91079108
.word 0xf8685aa9
.word 0xd61f0120
.global _dispatch_table_0_67
_dispatch_table_0_67:
.word 0xa9ff0680
.word 0xb84012c2
.word 0xd2800005
.word 0xb27103e4
.word 0xaa0003f9
.word 0xf8008680
.word 0xf8008681
.word 0xf85b83b1
.word 0xf9002234
.word 0xaa0103e3
.word 0xaa0003e1
.word 0xaa1303e0
.word 0xa9bf7ffe
bl _JS_SetPropertyInternalImpl_GC
.word 0xa8c17ffe
.word 0xd1002294
.word 0xd1002294
.word 0x7100001f
b.GE Label_504
.word 0x910016d6
.word 0xf85b83b1
.word 0xf9002234
b __exception_handler_entry
Label_504:
.word 0xb9414269
cbz w9, Label_505
.word 0xf8008680
.word 0xf8008681
.word 0xb1001ac8
.word 0xf85e83ac
.word 0xf9401989
.word 0xaa0903e2
.word 0xaa0803e1
.word 0xaa1303e0
.word 0xa9bf7ffe
bl _DebuggerCallEachOp
.word 0xa8c17ffe
.word 0xf85f8e81
.word 0xf85f8e80
Label_505:
.word 0x38405ec8
.word 0x91000108
.word 0xf8685aa9
.word 0xd61f0120
.global _dispatch_table_1_67
_dispatch_table_1_67:
.word 0xaa0003e1
.word 0xf85f8e80
.global _dispatch_table_2_67
_dispatch_table_2_67:
.word 0xb84012c2
.word 0xd2800005
.word 0xb27103e4
.word 0xaa0003f9
.word 0xf8008680
.word 0xf8008681
.word 0xf85b83b1
.word 0xf9002234
.word 0xaa0103e3
.word 0xaa0003e1
.word 0xaa1303e0
.word 0xa9bf7ffe
bl _JS_SetPropertyInternalImpl_GC
.word 0xa8c17ffe
.word 0xd1002294
.word 0xd1002294
.word 0x7100001f
b.GE Label_506
.word 0x910016d6
.word 0xf85b83b1
.word 0xf9002234
b __exception_handler_entry
Label_506:
.word 0xb9414269
cbz w9, Label_507
.word 0xf8008680
.word 0xf8008681
.word 0xb1001ac8
.word 0xf85e83ac
.word 0xf9401989
.word 0xaa0903e2
.word 0xaa0803e1
.word 0xaa1303e0
.word 0xa9bf7ffe
bl _DebuggerCallEachOp
.word 0xa8c17ffe
.word 0xf85f8e81
.word 0xf85f8e80
Label_507:
.word 0x38405ec8
.word 0x91000108
.word 0xf8685aa9
.word 0xd61f0120
.global _dispatch_table_0_68
_dispatch_table_0_68:
.word 0xa9ff0680
.word 0xf8008681
.word 0xf8008680
.word 0xf85b83b1
.word 0xf9002234
.word 0xaa0103e2
.word 0xaa0003e1
.word 0xaa1303e0
.word 0xa9bf7ffe
bl _JS_GetPrivateField_GC
.word 0xa8c17ffe
.word 0xaa0003f9
.word 0xf85f8e80
.word 0xf85f8e81
.word 0xaa1903e0
.word 0xf102081f
b.NE Label_509
.word 0xf8008680
.word 0x910006d6
.word 0xf85b83b1
.word 0xf9002234
b __exception_handler_entry
Label_509:
.word 0xb9414269
cbz w9, Label_510
.word 0xf8008680
.word 0xf8008681
.word 0xb1000ac8
.word 0xf85e83ac
.word 0xf9401989
.word 0xaa0903e2
.word 0xaa0803e1
.word 0xaa1303e0
.word 0xa9bf7ffe
bl _DebuggerCallEachOp
.word 0xa8c17ffe
.word 0xf85f8e81
.word 0xf85f8e80
Label_510:
.word 0x38401ec8
.word 0x9103c908
.word 0xf8685aa9
.word 0xd61f0120
.global _dispatch_table_1_68
_dispatch_table_1_68:
.word 0xaa0003e1
.word 0xf85f8e80
.global _dispatch_table_2_68
_dispatch_table_2_68:
.word 0xf8008681
.word 0xf8008680
.word 0xf85b83b1
.word 0xf9002234
.word 0xaa0103e2
.word 0xaa0003e1
.word 0xaa1303e0
.word 0xa9bf7ffe
bl _JS_GetPrivateField_GC
.word 0xa8c17ffe
.word 0xaa0003f9
.word 0xf85f8e80
.word 0xf85f8e81
.word 0xaa1903e0
.word 0xf102081f
b.NE Label_512
.word 0xf8008680
.word 0x910006d6
.word 0xf85b83b1
.word 0xf9002234
b __exception_handler_entry
Label_512:
.word 0xb9414269
cbz w9, Label_513
.word 0xf8008680
.word 0xf8008681
.word 0xb1000ac8
.word 0xf85e83ac
.word 0xf9401989
.word 0xaa0903e2
.word 0xaa0803e1
.word 0xaa1303e0
.word 0xa9bf7ffe
bl _DebuggerCallEachOp
.word 0xa8c17ffe
.word 0xf85f8e81
.word 0xf85f8e80
Label_513:
.word 0x38401ec8
.word 0x9103c908
.word 0xf8685aa9
.word 0xd61f0120
.global _dispatch_table_0_69
_dispatch_table_0_69:
.word 0xa9ff0680
.word 0xf85f8e99
.word 0xf8008681
.word 0xf8008680
.word 0xf8008699
.word 0xf85b83b1
.word 0xf9002234
.word 0xaa0003e3
.word 0xaa0103e2
.word 0xaa1903e1
.word 0xaa1303e0
.word 0xa9bf7ffe
bl _JS_SetPrivateField_GC
.word 0xa8c17ffe
.word 0xd1002294
.word 0xd1002294
.word 0xf8008680
.word 0xf85f8e99
.word 0xf85f8e81
.word 0x7100033f
b.GE Label_514
.word 0x910006d6
.word 0xf85b83b1
.word 0xf9002234
b __exception_handler_entry
Label_514:
.word 0xb9414269
cbz w9, Label_515
.word 0xf8008680
.word 0xf8008681
.word 0xb1000ac8
.word 0xf85e83ac
.word 0xf9401989
.word 0xaa0903e2
.word 0xaa0803e1
.word 0xaa1303e0
.word 0xa9bf7ffe
bl _DebuggerCallEachOp
.word 0xa8c17ffe
.word 0xf85f8e81
.word 0xf85f8e80
Label_515:
.word 0x38401ec8
.word 0x91000108
.word 0xf8685aa9
.word 0xd61f0120
.global _dispatch_table_1_69
_dispatch_table_1_69:
.word 0xaa0003e1
.word 0xf85f8e80
.global _dispatch_table_2_69
_dispatch_table_2_69:
.word 0xf85f8e99
.word 0xf8008681
.word 0xf8008680
.word 0xf8008699
.word 0xf85b83b1
.word 0xf9002234
.word 0xaa0003e3
.word 0xaa0103e2
.word 0xaa1903e1
.word 0xaa1303e0
.word 0xa9bf7ffe
bl _JS_SetPrivateField_GC
.word 0xa8c17ffe
.word 0xd1002294
.word 0xd1002294
.word 0xf8008680
.word 0xf85f8e99
.word 0xf85f8e81
.word 0x7100033f
b.GE Label_516
.word 0x910006d6
.word 0xf85b83b1
.word 0xf9002234
b __exception_handler_entry
Label_516:
.word 0xb9414269
cbz w9, Label_517
.word 0xf8008680
.word 0xf8008681
.word 0xb1000ac8
.word 0xf85e83ac
.word 0xf9401989
.word 0xaa0903e2
.word 0xaa0803e1
.word 0xaa1303e0
.word 0xa9bf7ffe
bl _DebuggerCallEachOp
.word 0xa8c17ffe
.word 0xf85f8e81
.word 0xf85f8e80
Label_517:
.word 0x38401ec8
.word 0x91000108
.word 0xf8685aa9
.word 0xd61f0120
.global _dispatch_table_0_70
_dispatch_table_0_70:
.word 0xa9ff0680
.word 0xf85f8288
.word 0xaa0003f9
.word 0xf8008680
.word 0xf8008681
.word 0xf85b83b1
.word 0xf9002234
.word 0xaa0103e3
.word 0xaa0003e2
.word 0xaa0803e1
.word 0xaa1303e0
.word 0xa9bf7ffe
bl _JS_DefinePrivateField_GC
.word 0xa8c17ffe
.word 0xd1002294
.word 0xd1002294
.word 0x7100001f
b.GE Label_518
.word 0x910006d6
.word 0xf85b83b1
.word 0xf9002234
b __exception_handler_entry
Label_518:
.word 0xb9414269
cbz w9, Label_519
.word 0xf8008680
.word 0xf8008681
.word 0xb1000ac8
.word 0xf85e83ac
.word 0xf9401989
.word 0xaa0903e2
.word 0xaa0803e1
.word 0xaa1303e0
.word 0xa9bf7ffe
bl _DebuggerCallEachOp
.word 0xa8c17ffe
.word 0xf85f8e81
.word 0xf85f8e80
Label_519:
.word 0x38401ec8
.word 0x91000108
.word 0xf8685aa9
.word 0xd61f0120
.global _dispatch_table_1_70
_dispatch_table_1_70:
.word 0xaa0003e1
.word 0xf85f8e80
.global _dispatch_table_2_70
_dispatch_table_2_70:
.word 0xf85f8288
.word 0xaa0003f9
.word 0xf8008680
.word 0xf8008681
.word 0xf85b83b1
.word 0xf9002234
.word 0xaa0103e3
.word 0xaa0003e2
.word 0xaa0803e1
.word 0xaa1303e0
.word 0xa9bf7ffe
bl _JS_DefinePrivateField_GC
.word 0xa8c17ffe
.word 0xd1002294
.word 0xd1002294
.word 0x7100001f
b.GE Label_520
.word 0x910006d6
.word 0xf85b83b1
.word 0xf9002234
b __exception_handler_entry
Label_520:
.word 0xb9414269
cbz w9, Label_521
.word 0xf8008680
.word 0xf8008681
.word 0xb1000ac8
.word 0xf85e83ac
.word 0xf9401989
.word 0xaa0903e2
.word 0xaa0803e1
.word 0xaa1303e0
.word 0xa9bf7ffe
bl _DebuggerCallEachOp
.word 0xa8c17ffe
.word 0xf85f8e81
.word 0xf85f8e80
Label_521:
.word 0x38401ec8
.word 0x91000108
.word 0xf8685aa9
.word 0xd61f0120
.global _dispatch_table_0_71
_dispatch_table_0_71:
.word 0xa9ff0680
.word 0xf8008680
.word 0xf8008681
.word 0xf85b83b1
.word 0xf9002234
.word 0xaa0103e2
.word 0xaa0003e1
.word 0xaa1303e0
.word 0xa9bf7ffe
bl _JS_GetPropertyValue_GC
.word 0xa8c17ffe
.word 0xd1002294
.word 0xd1002294
.word 0xf102081f
b.NE Label_522
.word 0x910006d6
.word 0xf85b83b1
.word 0xf9002234
b __exception_handler_entry
Label_522:
.word 0xb9414269
cbz w9, Label_523
.word 0xf8008680
.word 0xf8008681
.word 0xb1000ac8
.word 0xf85e83ac
.word 0xf9401989
.word 0xaa0903e2
.word 0xaa0803e1
.word 0xaa1303e0
.word 0xa9bf7ffe
bl _DebuggerCallEachOp
.word 0xa8c17ffe
.word 0xf85f8e81
.word 0xf85f8e80
Label_523:
.word 0x38401ec8
.word 0x9103c908
.word 0xf8685aa9
.word 0xd61f0120
.global _dispatch_table_1_71
_dispatch_table_1_71:
.word 0xaa0003e1
.word 0xf85f8e80
.global _dispatch_table_2_71
_dispatch_table_2_71:
.word 0xf8008680
.word 0xf8008681
.word 0xf85b83b1
.word 0xf9002234
.word 0xaa0103e2
.word 0xaa0003e1
.word 0xaa1303e0
.word 0xa9bf7ffe
bl _JS_GetPropertyValue_GC
.word 0xa8c17ffe
.word 0xd1002294
.word 0xd1002294
.word 0xf102081f
b.NE Label_524
.word 0x910006d6
.word 0xf85b83b1
.word 0xf9002234
b __exception_handler_entry
Label_524:
.word 0xb9414269
cbz w9, Label_525
.word 0xf8008680
.word 0xf8008681
.word 0xb1000ac8
.word 0xf85e83ac
.word 0xf9401989
.word 0xaa0903e2
.word 0xaa0803e1
.word 0xaa1303e0
.word 0xa9bf7ffe
bl _DebuggerCallEachOp
.word 0xa8c17ffe
.word 0xf85f8e81
.word 0xf85f8e80
Label_525:
.word 0x38401ec8
.word 0x9103c908
.word 0xf8685aa9
.word 0xd61f0120
.global _dispatch_table_0_72
_dispatch_table_0_72:
.word 0xa9ff0680
.word 0xaa0003f9
.word 0xf8008680
.word 0xf8008681
.word 0xf85b83b1
.word 0xf9002234
.word 0xaa0103e2
.word 0xaa0003e1
.word 0xaa1303e0
.word 0xa9bf7ffe
bl _JS_GetPropertyValue_GC
.word 0xa8c17ffe
.word 0xd1002294
.word 0xd1002294
.word 0xaa0003e1
.word 0xaa1903e0
.word 0xf102083f
b.NE Label_527
.word 0xf8008680
.word 0xf8008681
.word 0x910006d6
.word 0xf85b83b1
.word 0xf9002234
b __exception_handler_entry
Label_527:
.word 0xb9414269
cbz w9, Label_528
.word 0xf8008680
.word 0xf8008681
.word 0xb1000ac8
.word 0xf85e83ac
.word 0xf9401989
.word 0xaa0903e2
.word 0xaa0803e1
.word 0xaa1303e0
.word 0xa9bf7ffe
bl _DebuggerCallEachOp
.word 0xa8c17ffe
.word 0xf85f8e81
.word 0xf85f8e80
Label_528:
.word 0x38401ec8
.word 0x91079108
.word 0xf8685aa9
.word 0xd61f0120
.global _dispatch_table_1_72
_dispatch_table_1_72:
.word 0xaa0003e1
.word 0xf85f8e80
.global _dispatch_table_2_72
_dispatch_table_2_72:
.word 0xaa0003f9
.word 0xf8008680
.word 0xf8008681
.word 0xf85b83b1
.word 0xf9002234
.word 0xaa0103e2
.word 0xaa0003e1
.word 0xaa1303e0
.word 0xa9bf7ffe
bl _JS_GetPropertyValue_GC
.word 0xa8c17ffe
.word 0xd1002294
.word 0xd1002294
.word 0xaa0003e1
.word 0xaa1903e0
.word 0xf102083f
b.NE Label_530
.word 0xf8008680
.word 0xf8008681
.word 0x910006d6
.word 0xf85b83b1
.word 0xf9002234
b __exception_handler_entry
Label_530:
.word 0xb9414269
cbz w9, Label_531
.word 0xf8008680
.word 0xf8008681
.word 0xb1000ac8
.word 0xf85e83ac
.word 0xf9401989
.word 0xaa0903e2
.word 0xaa0803e1
.word 0xaa1303e0
.word 0xa9bf7ffe
bl _DebuggerCallEachOp
.word 0xa8c17ffe
.word 0xf85f8e81
.word 0xf85f8e80
Label_531:
.word 0x38401ec8
.word 0x91079108
.word 0xf8685aa9
.word 0xd61f0120
.global _dispatch_table_0_73
_dispatch_table_0_73:
.word 0xa9ff0680
.word 0xf85f8e99
.word 0xd2800049
.word 0xf2ffffe9
.word 0xea090329
cbnz x9, Label_533
.word 0x79400f29
.word 0xf100553f
b.LT Label_533
.word 0xf100753f
b.GT Label_533
.word 0xd2800004
b Label_532
Label_533:
.word 0xb27103e4
Label_532:
.word 0xf8008680
.word 0xf8008681
.word 0xf8008699
.word 0xf85b83b1
.word 0xf9002234
.word 0xaa0103e3
.word 0xaa0003e2
.word 0xaa1903e1
.word 0xaa1303e0
.word 0xa9bf7ffe
bl _JS_SetPropertyValue_GC
.word 0xa8c17ffe
.word 0xd1002294
.word 0xd1002294
.word 0xd1002294
.word 0x7100001f
b.GE Label_534
.word 0x910006d6
.word 0xf85b83b1
.word 0xf9002234
b __exception_handler_entry
Label_534:
.word 0xb9414269
cbz w9, Label_535
.word 0xf8008680
.word 0xf8008681
.word 0xb1000ac8
.word 0xf85e83ac
.word 0xf9401989
.word 0xaa0903e2
.word 0xaa0803e1
.word 0xaa1303e0
.word 0xa9bf7ffe
bl _DebuggerCallEachOp
.word 0xa8c17ffe
.word 0xf85f8e81
.word 0xf85f8e80
Label_535:
.word 0x38401ec8
.word 0x91000108
.word 0xf8685aa9
.word 0xd61f0120
.global _dispatch_table_1_73
_dispatch_table_1_73:
.word 0xaa0003e1
.word 0xf85f8e80
.global _dispatch_table_2_73
_dispatch_table_2_73:
.word 0xf85f8e99
.word 0xd2800049
.word 0xf2ffffe9
.word 0xea090329
cbnz x9, Label_537
.word 0x79400f29
.word 0xf100553f
b.LT Label_537
.word 0xf100753f
b.GT Label_537
.word 0xd2800004
b Label_536
Label_537:
.word 0xb27103e4
Label_536:
.word 0xf8008680
.word 0xf8008681
.word 0xf8008699
.word 0xf85b83b1
.word 0xf9002234
.word 0xaa0103e3
.word 0xaa0003e2
.word 0xaa1903e1
.word 0xaa1303e0
.word 0xa9bf7ffe
bl _JS_SetPropertyValue_GC
.word 0xa8c17ffe
.word 0xd1002294
.word 0xd1002294
.word 0xd1002294
.word 0x7100001f
b.GE Label_538
.word 0x910006d6
.word 0xf85b83b1
.word 0xf9002234
b __exception_handler_entry
Label_538:
.word 0xb9414269
cbz w9, Label_539
.word 0xf8008680
.word 0xf8008681
.word 0xb1000ac8
.word 0xf85e83ac
.word 0xf9401989
.word 0xaa0903e2
.word 0xaa0803e1
.word 0xaa1303e0
.word 0xa9bf7ffe
bl _DebuggerCallEachOp
.word 0xa8c17ffe
.word 0xf85f8e81
.word 0xf85f8e80
Label_539:
.word 0x38401ec8
.word 0x91000108
.word 0xf8685aa9
.word 0xd61f0120
.global _dispatch_table_0_74
_dispatch_table_0_74:
.word 0xa9ff0680
.word 0xf8008680
.word 0xf8008681
.word 0xf85b83b1
.word 0xf9002234
.word 0xaa1303e0
.word 0xa9bf7ffe
bl _LEPUS_ValueToAtom
.word 0xa8c17ffe
.word 0xd2800008
.word 0xeb08001f
b.NE Label_540
.word 0xf85b83b1
.word 0xf9002234
.word 0x910006d6
b __exception_handler_entry
Label_540:
.word 0xaa0003f9
.word 0xf85f0280
.word 0xf85e8288
.word 0xd2800009
.word 0xd2800005
.word 0xf85b83b1
.word 0xf9002234
.word 0xaa0903e4
.word 0xaa0803e3
.word 0xaa1903e2
.word 0xaa0003e1
.word 0xaa1303e0
.word 0xa9bf7ffe
bl _JS_GetPropertyInternalImpl_GC
.word 0xa8c17ffe
.word 0xf102081f
b.NE Label_541
.word 0x910006d6
.word 0xf85b83b1
.word 0xf9002234
b __exception_handler_entry
Label_541:
.word 0xf8008680
.word 0xf85f8e99
.word 0xd1002294
.word 0xd1002294
.word 0xd1002294
.word 0xaa1903e0
.word 0xb9414269
cbz w9, Label_542
.word 0xf8008680
.word 0xf8008681
.word 0xb1000ac8
.word 0xf85e83ac
.word 0xf9401989
.word 0xaa0903e2
.word 0xaa0803e1
.word 0xaa1303e0
.word 0xa9bf7ffe
bl _DebuggerCallEachOp
.word 0xa8c17ffe
.word 0xf85f8e81
.word 0xf85f8e80
Label_542:
.word 0x38401ec8
.word 0x9103c908
.word 0xf8685aa9
.word 0xd61f0120
.global _dispatch_table_1_74
_dispatch_table_1_74:
.word 0xaa0003e1
.word 0xf85f8e80
.global _dispatch_table_2_74
_dispatch_table_2_74:
.word 0xf8008680
.word 0xf8008681
.word 0xf85b83b1
.word 0xf9002234
.word 0xaa1303e0
.word 0xa9bf7ffe
bl _LEPUS_ValueToAtom
.word 0xa8c17ffe
.word 0xd2800008
.word 0xeb08001f
b.NE Label_543
.word 0xf85b83b1
.word 0xf9002234
.word 0x910006d6
b __exception_handler_entry
Label_543:
.word 0xaa0003f9
.word 0xf85f0280
.word 0xf85e8288
.word 0xd2800009
.word 0xd2800005
.word 0xf85b83b1
.word 0xf9002234
.word 0xaa0903e4
.word 0xaa0803e3
.word 0xaa1903e2
.word 0xaa0003e1
.word 0xaa1303e0
.word 0xa9bf7ffe
bl _JS_GetPropertyInternalImpl_GC
.word 0xa8c17ffe
.word 0xf102081f
b.NE Label_544
.word 0x910006d6
.word 0xf85b83b1
.word 0xf9002234
b __exception_handler_entry
Label_544:
.word 0xf8008680
.word 0xf85f8e99
.word 0xd1002294
.word 0xd1002294
.word 0xd1002294
.word 0xaa1903e0
.word 0xb9414269
cbz w9, Label_545
.word 0xf8008680
.word 0xf8008681
.word 0xb1000ac8
.word 0xf85e83ac
.word 0xf9401989
.word 0xaa0903e2
.word 0xaa0803e1
.word 0xaa1303e0
.word 0xa9bf7ffe
bl _DebuggerCallEachOp
.word 0xa8c17ffe
.word 0xf85f8e81
.word 0xf85f8e80
Label_545:
.word 0x38401ec8
.word 0x9103c908
.word 0xf8685aa9
.word 0xd61f0120
.global _dispatch_table_1_75
_dispatch_table_1_75:
.word 0xf8008680
.word 0xf85b83b1
.word 0xf9002234
.word 0xf85e8288
.word 0xd2800049
.word 0xf2ffffc9
.word 0xea09011f
b.EQ Label_547
.word 0xf85b83b1
.word 0xf9002234
.word 0xaa1303e0
.word 0xa9bf7ffe
bl _JS_ThrowTypeErrorNotAnObject
.word 0xa8c17ffe
.word 0x910006d6
.word 0xf85b83b1
.word 0xf9002234
b __exception_handler_entry
Label_547:
.word 0xf85f0288
.word 0xf85b83b1
.word 0xf9002234
.word 0xaa0803e1
.word 0xaa1303e0
.word 0xa9bf7ffe
bl _LEPUS_ValueToAtom
.word 0xa8c17ffe
.word 0xf100001f
b.NE Label_549
.word 0x910006d6
.word 0xf85b83b1
.word 0xf9002234
b __exception_handler_entry
Label_549:
.word 0xf85e8281
.word 0xf85f8283
.word 0xf85e0284
.word 0xb27103e5
.word 0xaa0003f9
.word 0xf85b83b1
.word 0xf9002234
.word 0xaa0003e2
.word 0xaa1303e0
.word 0xa9bf7ffe
bl _JS_SetPropertyGeneric_GC
.word 0xa8c17ffe
.word 0xd1008294
.word 0x7100001f
b.GE Label_550
.word 0x910006d6
.word 0xf85b83b1
.word 0xf9002234
b __exception_handler_entry
Label_550:
.word 0xb9414269
cbz w9, Label_551
.word 0xf8008680
.word 0xf8008681
.word 0xb1000ac8
.word 0xf85e83ac
.word 0xf9401989
.word 0xaa0903e2
.word 0xaa0803e1
.word 0xaa1303e0
.word 0xa9bf7ffe
bl _DebuggerCallEachOp
.word 0xa8c17ffe
.word 0xf85f8e81
.word 0xf85f8e80
Label_551:
.word 0x38401ec8
.word 0x91000108
.word 0xf8685aa9
.word 0xd61f0120
.global _dispatch_table_2_75
_dispatch_table_2_75:
.word 0xa8810680
.word 0xf85b83b1
.word 0xf9002234
.global _dispatch_table_0_75
_dispatch_table_0_75:
.word 0xf85e8288
.word 0xd2800049
.word 0xf2ffffc9
.word 0xea09011f
b.EQ Label_553
.word 0xf85b83b1
.word 0xf9002234
.word 0xaa1303e0
.word 0xa9bf7ffe
bl _JS_ThrowTypeErrorNotAnObject
.word 0xa8c17ffe
.word 0x910006d6
.word 0xf85b83b1
.word 0xf9002234
b __exception_handler_entry
Label_553:
.word 0xf85f0288
.word 0xf85b83b1
.word 0xf9002234
.word 0xaa0803e1
.word 0xaa1303e0
.word 0xa9bf7ffe
bl _LEPUS_ValueToAtom
.word 0xa8c17ffe
.word 0xf100001f
b.NE Label_555
.word 0x910006d6
.word 0xf85b83b1
.word 0xf9002234
b __exception_handler_entry
Label_555:
.word 0xf85e8281
.word 0xf85f8283
.word 0xf85e0284
.word 0xb27103e5
.word 0xaa0003f9
.word 0xf85b83b1
.word 0xf9002234
.word 0xaa0003e2
.word 0xaa1303e0
.word 0xa9bf7ffe
bl _JS_SetPropertyGeneric_GC
.word 0xa8c17ffe
.word 0xd1008294
.word 0x7100001f
b.GE Label_556
.word 0x910006d6
.word 0xf85b83b1
.word 0xf9002234
b __exception_handler_entry
Label_556:
.word 0xb9414269
cbz w9, Label_557
.word 0xf8008680
.word 0xf8008681
.word 0xb1000ac8
.word 0xf85e83ac
.word 0xf9401989
.word 0xaa0903e2
.word 0xaa0803e1
.word 0xaa1303e0
.word 0xa9bf7ffe
bl _DebuggerCallEachOp
.word 0xa8c17ffe
.word 0xf85f8e81
.word 0xf85f8e80
Label_557:
.word 0x38401ec8
.word 0x91000108
.word 0xf8685aa9
.word 0xd61f0120
.global _dispatch_table_0_76
_dispatch_table_0_76:
.word 0xb84012c2
.word 0xd28800e4
.word 0xf85f8e80
.word 0xf85f8281
.word 0xf8008680
.word 0xf85b83b1
.word 0xf9002234
.word 0xaa0003e3
.word 0xaa1303e0
.word 0xa9bf7ffe
bl _LEPUS_DefinePropertyValue
.word 0xa8c17ffe
.word 0xd1002294
.word 0x7100001f
b.GE Label_558
.word 0x910016d6
.word 0xf85b83b1
.word 0xf9002234
b __exception_handler_entry
Label_558:
.word 0xb9414269
cbz w9, Label_559
.word 0xf8008680
.word 0xf8008681
.word 0xb1001ac8
.word 0xf85e83ac
.word 0xf9401989
.word 0xaa0903e2
.word 0xaa0803e1
.word 0xaa1303e0
.word 0xa9bf7ffe
bl _DebuggerCallEachOp
.word 0xa8c17ffe
.word 0xf85f8e81
.word 0xf85f8e80
Label_559:
.word 0x38405ec8
.word 0x91000108
.word 0xf8685aa9
.word 0xd61f0120
.global _dispatch_table_1_76
_dispatch_table_1_76:
.word 0xb84012c2
.word 0xd28800e4
.word 0xf85f8281
.word 0xf8008680
.word 0xf85b83b1
.word 0xf9002234
.word 0xaa0003e3
.word 0xaa1303e0
.word 0xa9bf7ffe
bl _LEPUS_DefinePropertyValue
.word 0xa8c17ffe
.word 0xd1002294
.word 0x7100001f
b.GE Label_560
.word 0x910016d6
.word 0xf85b83b1
.word 0xf9002234
b __exception_handler_entry
Label_560:
.word 0xb9414269
cbz w9, Label_561
.word 0xf8008680
.word 0xf8008681
.word 0xb1001ac8
.word 0xf85e83ac
.word 0xf9401989
.word 0xaa0903e2
.word 0xaa0803e1
.word 0xaa1303e0
.word 0xa9bf7ffe
bl _DebuggerCallEachOp
.word 0xa8c17ffe
.word 0xf85f8e81
.word 0xf85f8e80
Label_561:
.word 0x38405ec8
.word 0x91000108
.word 0xf8685aa9
.word 0xd61f0120
.global _dispatch_table_2_76
_dispatch_table_2_76:
.word 0xb84012c2
.word 0xd28800e4
.word 0xaa0003f9
.word 0xf8008680
.word 0xf8008681
.word 0xf85b83b1
.word 0xf9002234
.word 0xaa0103e3
.word 0xaa0003e1
.word 0xaa1303e0
.word 0xa9bf7ffe
bl _LEPUS_DefinePropertyValue
.word 0xa8c17ffe
.word 0xd1002294
.word 0xd1002294
.word 0x7100001f
b.GE Label_563
.word 0xf8008699
.word 0x910016d6
.word 0xf85b83b1
.word 0xf9002234
b __exception_handler_entry
Label_563:
.word 0xaa1903e0
.word 0xb9414269
cbz w9, Label_564
.word 0xf8008680
.word 0xf8008681
.word 0xb1001ac8
.word 0xf85e83ac
.word 0xf9401989
.word 0xaa0903e2
.word 0xaa0803e1
.word 0xaa1303e0
.word 0xa9bf7ffe
bl _DebuggerCallEachOp
.word 0xa8c17ffe
.word 0xf85f8e81
.word 0xf85f8e80
Label_564:
.word 0x38405ec8
.word 0x9103c908
.word 0xf8685aa9
.word 0xd61f0120
.global _dispatch_table_2_77
_dispatch_table_2_77:
.word 0xf8008680
.word 0xaa0103e0
.word 0xf85b83b1
.word 0xf9002234
.word 0xb84012c8
.word 0xb24003e9
.word 0xaa0003f9
.word 0xf8008680
.word 0xf85b83b1
.word 0xf9002234
.word 0xaa0903e3
.word 0xaa0803e2
.word 0xaa0003e1
.word 0xaa1303e0
.word 0xa9bf7ffe
bl _JS_DefineObjectName
.word 0xa8c17ffe
.word 0xd1002294
.word 0x7100001f
b.GE Label_566
.word 0xf8008699
.word 0x910016d6
.word 0xf85b83b1
.word 0xf9002234
b __exception_handler_entry
Label_566:
.word 0xaa1903e0
.word 0xb9414269
cbz w9, Label_567
.word 0xf8008680
.word 0xf8008681
.word 0xb1001ac8
.word 0xf85e83ac
.word 0xf9401989
.word 0xaa0903e2
.word 0xaa0803e1
.word 0xaa1303e0
.word 0xa9bf7ffe
bl _DebuggerCallEachOp
.word 0xa8c17ffe
.word 0xf85f8e81
.word 0xf85f8e80
Label_567:
.word 0x38405ec8
.word 0x9103c908
.word 0xf8685aa9
.word 0xd61f0120
.global _dispatch_table_0_77
_dispatch_table_0_77:
.word 0xf85f8e80
.global _dispatch_table_1_77
_dispatch_table_1_77:
.word 0xb84012c8
.word 0xb24003e9
.word 0xaa0003f9
.word 0xf8008680
.word 0xf85b83b1
.word 0xf9002234
.word 0xaa0903e3
.word 0xaa0803e2
.word 0xaa0003e1
.word 0xaa1303e0
.word 0xa9bf7ffe
bl _JS_DefineObjectName
.word 0xa8c17ffe
.word 0xd1002294
.word 0x7100001f
b.GE Label_569
.word 0xf8008699
.word 0x910016d6
.word 0xf85b83b1
.word 0xf9002234
b __exception_handler_entry
Label_569:
.word 0xaa1903e0
.word 0xb9414269
cbz w9, Label_570
.word 0xf8008680
.word 0xf8008681
.word 0xb1001ac8
.word 0xf85e83ac
.word 0xf9401989
.word 0xaa0903e2
.word 0xaa0803e1
.word 0xaa1303e0
.word 0xa9bf7ffe
bl _DebuggerCallEachOp
.word 0xa8c17ffe
.word 0xf85f8e81
.word 0xf85f8e80
Label_570:
.word 0x38405ec8
.word 0x9103c908
.word 0xf8685aa9
.word 0xd61f0120
.global _dispatch_table_0_78
_dispatch_table_0_78:
.word 0xa9ff0680
.word 0xb24003e8
.word 0xaa0003f9
.word 0xf8008681
.word 0xf8008680
.word 0xf85b83b1
.word 0xf9002234
.word 0xaa0803e3
.word 0xaa0003e2
.word 0xaa1303e0
.word 0xa9bf7ffe
bl _JS_DefineObjectNameComputed_GC
.word 0xa8c17ffe
.word 0xd1002294
.word 0x7100001f
b.GE Label_572
.word 0xf8008699
.word 0x910006d6
.word 0xf85b83b1
.word 0xf9002234
b __exception_handler_entry
Label_572:
.word 0xf85f8e81
.word 0xaa1903e0
.word 0xb9414269
cbz w9, Label_573
.word 0xf8008680
.word 0xf8008681
.word 0xb1000ac8
.word 0xf85e83ac
.word 0xf9401989
.word 0xaa0903e2
.word 0xaa0803e1
.word 0xaa1303e0
.word 0xa9bf7ffe
bl _DebuggerCallEachOp
.word 0xa8c17ffe
.word 0xf85f8e81
.word 0xf85f8e80
Label_573:
.word 0x38401ec8
.word 0x91079108
.word 0xf8685aa9
.word 0xd61f0120
.global _dispatch_table_1_78
_dispatch_table_1_78:
.word 0xaa0003e1
.word 0xf85f8e80
.global _dispatch_table_2_78
_dispatch_table_2_78:
.word 0xb24003e8
.word 0xaa0003f9
.word 0xf8008681
.word 0xf8008680
.word 0xf85b83b1
.word 0xf9002234
.word 0xaa0803e3
.word 0xaa0003e2
.word 0xaa1303e0
.word 0xa9bf7ffe
bl _JS_DefineObjectNameComputed_GC
.word 0xa8c17ffe
.word 0xd1002294
.word 0x7100001f
b.GE Label_575
.word 0xf8008699
.word 0x910006d6
.word 0xf85b83b1
.word 0xf9002234
b __exception_handler_entry
Label_575:
.word 0xf85f8e81
.word 0xaa1903e0
.word 0xb9414269
cbz w9, Label_576
.word 0xf8008680
.word 0xf8008681
.word 0xb1000ac8
.word 0xf85e83ac
.word 0xf9401989
.word 0xaa0903e2
.word 0xaa0803e1
.word 0xaa1303e0
.word 0xa9bf7ffe
bl _DebuggerCallEachOp
.word 0xa8c17ffe
.word 0xf85f8e81
.word 0xf85f8e80
Label_576:
.word 0x38401ec8
.word 0x91079108
.word 0xf8685aa9
.word 0xd61f0120
.global _dispatch_table_0_79
_dispatch_table_0_79:
.word 0xa9ff0680
.word 0xaa0003f9
.word 0xf100083f
b.NE Label_577
b Label_578
Label_577:
.word 0xd2800048
.word 0xf2ffffe8
.word 0xea01011f
b.NE Label_579
Label_578:
.word 0xb24003e3
.word 0xf8008681
.word 0xf8008680
.word 0xf85b83b1
.word 0xf9002234
.word 0xaa0103e2
.word 0xaa0003e1
.word 0xaa1303e0
.word 0xa9bf7ffe
bl _JS_SetPrototypeInternal_GC
.word 0xa8c17ffe
.word 0xd1002294
.word 0x7100001f
b.GE Label_581
.word 0xf8008699
.word 0x910006d6
.word 0xf85b83b1
.word 0xf9002234
b __exception_handler_entry
Label_581:
.word 0xf85f8e81
Label_579:
.word 0xaa1903e0
.word 0xb9414269
cbz w9, Label_582
.word 0xf8008680
.word 0xf8008681
.word 0xb1000ac8
.word 0xf85e83ac
.word 0xf9401989
.word 0xaa0903e2
.word 0xaa0803e1
.word 0xaa1303e0
.word 0xa9bf7ffe
bl _DebuggerCallEachOp
.word 0xa8c17ffe
.word 0xf85f8e81
.word 0xf85f8e80
Label_582:
.word 0x38401ec8
.word 0x9103c908
.word 0xf8685aa9
.word 0xd61f0120
.global _dispatch_table_1_79
_dispatch_table_1_79:
.word 0xaa0003e1
.word 0xf85f8e80
.global _dispatch_table_2_79
_dispatch_table_2_79:
.word 0xaa0003f9
.word 0xf100083f
b.NE Label_583
b Label_584
Label_583:
.word 0xd2800048
.word 0xf2ffffe8
.word 0xea01011f
b.NE Label_585
Label_584:
.word 0xb24003e3
.word 0xf8008681
.word 0xf8008680
.word 0xf85b83b1
.word 0xf9002234
.word 0xaa0103e2
.word 0xaa0003e1
.word 0xaa1303e0
.word 0xa9bf7ffe
bl _JS_SetPrototypeInternal_GC
.word 0xa8c17ffe
.word 0xd1002294
.word 0x7100001f
b.GE Label_587
.word 0xf8008699
.word 0x910006d6
.word 0xf85b83b1
.word 0xf9002234
b __exception_handler_entry
Label_587:
.word 0xf85f8e81
Label_585:
.word 0xaa1903e0
.word 0xb9414269
cbz w9, Label_588
.word 0xf8008680
.word 0xf8008681
.word 0xb1000ac8
.word 0xf85e83ac
.word 0xf9401989
.word 0xaa0903e2
.word 0xaa0803e1
.word 0xaa1303e0
.word 0xa9bf7ffe
bl _DebuggerCallEachOp
.word 0xa8c17ffe
.word 0xf85f8e81
.word 0xf85f8e80
Label_588:
.word 0x38401ec8
.word 0x9103c908
.word 0xf8685aa9
.word 0xd61f0120
.global _dispatch_table_0_80
_dispatch_table_0_80:
.word 0xa9ff0680
.word 0xf8008680
.word 0xaa0103f9
.word 0xaa0003e2
.word 0xaa1303e0
.word 0xa9bf7ffe
bl _js_method_set_home_object_gc
.word 0xa8c17ffe
.word 0xaa1903e1
.word 0xf85f8e80
.word 0xb9414269
cbz w9, Label_589
.word 0xf8008680
.word 0xf8008681
.word 0xb1000ac8
.word 0xf85e83ac
.word 0xf9401989
.word 0xaa0903e2
.word 0xaa0803e1
.word 0xaa1303e0
.word 0xa9bf7ffe
bl _DebuggerCallEachOp
.word 0xa8c17ffe
.word 0xf85f8e81
.word 0xf85f8e80
Label_589:
.word 0x38401ec8
.word 0x91079108
.word 0xf8685aa9
.word 0xd61f0120
.global _dispatch_table_1_80
_dispatch_table_1_80:
.word 0xaa0003e1
.word 0xf85f8e80
.global _dispatch_table_2_80
_dispatch_table_2_80:
.word 0xf8008680
.word 0xaa0103f9
.word 0xaa0003e2
.word 0xaa1303e0
.word 0xa9bf7ffe
bl _js_method_set_home_object_gc
.word 0xa8c17ffe
.word 0xaa1903e1
.word 0xf85f8e80
.word 0xb9414269
cbz w9, Label_590
.word 0xf8008680
.word 0xf8008681
.word 0xb1000ac8
.word 0xf85e83ac
.word 0xf9401989
.word 0xaa0903e2
.word 0xaa0803e1
.word 0xaa1303e0
.word 0xa9bf7ffe
bl _DebuggerCallEachOp
.word 0xa8c17ffe
.word 0xf85f8e81
.word 0xf85f8e80
Label_590:
.word 0x38401ec8
.word 0x91079108
.word 0xf8685aa9
.word 0xd61f0120
.global _dispatch_table_0_81
_dispatch_table_0_81:
.word 0xa9ff0680
.word 0xf85f8e99
.word 0xd28800e8
.word 0xf8008680
.word 0xf8008681
.word 0xf8008699
.word 0xf85b83b1
.word 0xf9002234
.word 0xaa0803e4
.word 0xaa0103e3
.word 0xaa0003e2
.word 0xaa1903e1
.word 0xaa1303e0
.word 0xa9bf7ffe
bl _JS_DefinePropertyValueValue_GC
.word 0xa8c17ffe
.word 0xd1002294
.word 0xd1002294
.word 0x7100001f
b.GE Label_592
.word 0xf8008699
.word 0x910006d6
.word 0xf85b83b1
.word 0xf9002234
b __exception_handler_entry
Label_592:
.word 0xf85f8e81
.word 0xaa1903e0
.word 0xb9414269
cbz w9, Label_593
.word 0xf8008680
.word 0xf8008681
.word 0xb1000ac8
.word 0xf85e83ac
.word 0xf9401989
.word 0xaa0903e2
.word 0xaa0803e1
.word 0xaa1303e0
.word 0xa9bf7ffe
bl _DebuggerCallEachOp
.word 0xa8c17ffe
.word 0xf85f8e81
.word 0xf85f8e80
Label_593:
.word 0x38401ec8
.word 0x91079108
.word 0xf8685aa9
.word 0xd61f0120
.global _dispatch_table_1_81
_dispatch_table_1_81:
.word 0xaa0003e1
.word 0xf85f8e80
.global _dispatch_table_2_81
_dispatch_table_2_81:
.word 0xf85f8e99
.word 0xd28800e8
.word 0xf8008680
.word 0xf8008681
.word 0xf8008699
.word 0xf85b83b1
.word 0xf9002234
.word 0xaa0803e4
.word 0xaa0103e3
.word 0xaa0003e2
.word 0xaa1903e1
.word 0xaa1303e0
.word 0xa9bf7ffe
bl _JS_DefinePropertyValueValue_GC
.word 0xa8c17ffe
.word 0xd1002294
.word 0xd1002294
.word 0x7100001f
b.GE Label_595
.word 0xf8008699
.word 0x910006d6
.word 0xf85b83b1
.word 0xf9002234
b __exception_handler_entry
Label_595:
.word 0xf85f8e81
.word 0xaa1903e0
.word 0xb9414269
cbz w9, Label_596
.word 0xf8008680
.word 0xf8008681
.word 0xb1000ac8
.word 0xf85e83ac
.word 0xf9401989
.word 0xaa0903e2
.word 0xaa0803e1
.word 0xaa1303e0
.word 0xa9bf7ffe
bl _DebuggerCallEachOp
.word 0xa8c17ffe
.word 0xf85f8e81
.word 0xf85f8e80
Label_596:
.word 0x38401ec8
.word 0x91079108
.word 0xf8685aa9
.word 0xd61f0120
.global _dispatch_table_1_82
_dispatch_table_1_82:
.word 0xf8008680
.word 0xf85b83b1
.word 0xf9002234
.word 0xf85b83b1
.word 0xf9002234
.word 0xaa1403e1
.word 0xaa1303e0
.word 0xa9bf7ffe
bl _js_append_enumerate_gc
.word 0xa8c17ffe
.word 0x7100001f
b.GE Label_597
.word 0x910006d6
.word 0xf85b83b1
.word 0xf9002234
b __exception_handler_entry
Label_597:
.word 0xf85f8e80
.word 0xb9414269
cbz w9, Label_598
.word 0xf8008680
.word 0xf8008681
.word 0xb1000ac8
.word 0xf85e83ac
.word 0xf9401989
.word 0xaa0903e2
.word 0xaa0803e1
.word 0xaa1303e0
.word 0xa9bf7ffe
bl _DebuggerCallEachOp
.word 0xa8c17ffe
.word 0xf85f8e81
.word 0xf85f8e80
Label_598:
.word 0x38401ec8
.word 0x91000108
.word 0xf8685aa9
.word 0xd61f0120
.global _dispatch_table_2_82
_dispatch_table_2_82:
.word 0xa8810680
.word 0xf85b83b1
.word 0xf9002234
.global _dispatch_table_0_82
_dispatch_table_0_82:
.word 0xf85b83b1
.word 0xf9002234
.word 0xaa1403e1
.word 0xaa1303e0
.word 0xa9bf7ffe
bl _js_append_enumerate_gc
.word 0xa8c17ffe
.word 0x7100001f
b.GE Label_599
.word 0x910006d6
.word 0xf85b83b1
.word 0xf9002234
b __exception_handler_entry
Label_599:
.word 0xf85f8e80
.word 0xb9414269
cbz w9, Label_600
.word 0xf8008680
.word 0xf8008681
.word 0xb1000ac8
.word 0xf85e83ac
.word 0xf9401989
.word 0xaa0903e2
.word 0xaa0803e1
.word 0xaa1303e0
.word 0xa9bf7ffe
bl _DebuggerCallEachOp
.word 0xa8c17ffe
.word 0xf85f8e81
.word 0xf85f8e80
Label_600:
.word 0x38401ec8
.word 0x91000108
.word 0xf8685aa9
.word 0xd61f0120
.global _dispatch_table_1_83
_dispatch_table_1_83:
.word 0xf8008680
.word 0xf85b83b1
.word 0xf9002234
.word 0x394006c2
.word 0xf85b83b1
.word 0xf9002234
.word 0xaa1403e1
.word 0xaa1303e0
.word 0xa9bf7ffe
bl _prim_js_copy_data_properties_gc
.word 0xa8c17ffe
.word 0x7100001f
b.GE Label_601
.word 0x91000ad6
.word 0xf85b83b1
.word 0xf9002234
b __exception_handler_entry
Label_601:
.word 0xb9414269
cbz w9, Label_602
.word 0xf8008680
.word 0xf8008681
.word 0xb1000ec8
.word 0xf85e83ac
.word 0xf9401989
.word 0xaa0903e2
.word 0xaa0803e1
.word 0xaa1303e0
.word 0xa9bf7ffe
bl _DebuggerCallEachOp
.word 0xa8c17ffe
.word 0xf85f8e81
.word 0xf85f8e80
Label_602:
.word 0x38402ec8
.word 0x91000108
.word 0xf8685aa9
.word 0xd61f0120
.global _dispatch_table_2_83
_dispatch_table_2_83:
.word 0xa8810680
.word 0xf85b83b1
.word 0xf9002234
.global _dispatch_table_0_83
_dispatch_table_0_83:
.word 0x394006c2
.word 0xf85b83b1
.word 0xf9002234
.word 0xaa1403e1
.word 0xaa1303e0
.word 0xa9bf7ffe
bl _prim_js_copy_data_properties_gc
.word 0xa8c17ffe
.word 0x7100001f
b.GE Label_603
.word 0x91000ad6
.word 0xf85b83b1
.word 0xf9002234
b __exception_handler_entry
Label_603:
.word 0xb9414269
cbz w9, Label_604
.word 0xf8008680
.word 0xf8008681
.word 0xb1000ec8
.word 0xf85e83ac
.word 0xf9401989
.word 0xaa0903e2
.word 0xaa0803e1
.word 0xaa1303e0
.word 0xa9bf7ffe
bl _DebuggerCallEachOp
.word 0xa8c17ffe
.word 0xf85f8e81
.word 0xf85f8e80
Label_604:
.word 0x38402ec8
.word 0x91000108
.word 0xf8685aa9
.word 0xd61f0120
.global _dispatch_table_0_84
_dispatch_table_0_84:
.word 0xa9ff0680
.word 0xb84012c8
.word 0x394016c9
.word 0xd288a023
.word 0xf27e013f
b.EQ Label_605
.word 0xb27e0063
Label_605:
.word 0x92400529
.word 0xf100013f
b.NE Label_606
.word 0xd2844044
.word 0xaa040063
b Label_608
Label_606:
.word 0xf100053f
b.NE Label_607
.word 0xb2750063
b Label_608
Label_607:
.word 0xb2740063
Label_608:
.word 0xf8008680
.word 0xf8008681
.word 0xf85b83b1
.word 0xf9002234
.word 0xf8008683
.word 0xaa0003e4
.word 0xaa0803e2
.word 0xaa1303e0
.word 0xa9bf7ffe
bl _js_method_set_properties_gc
.word 0xa8c17ffe
.word 0xf85f8e83
.word 0x7100001f
b.LT Label_609
.word 0xf85f8281
.word 0xf85f0280
.word 0xb84012c8
.word 0xaa0303e6
.word 0xaa0103e5
.word 0xaa0103e4
.word 0xaa0103e3
.word 0xaa0803e2
.word 0xaa0003e1
.word 0xaa1303e0
.word 0xa9bf7ffe
bl _LEPUS_DefineProperty
.word 0xa8c17ffe
Label_609:
.word 0xaa0003f9
.word 0xf85f8e81
.word 0x7100033f
b.GE Label_610
.word 0x91001ad6
.word 0xf85b83b1
.word 0xf9002234
b __exception_handler_entry
Label_610:
.word 0xb9414269
cbz w9, Label_611
.word 0xf8008680
.word 0xf8008681
.word 0xb1001ec8
.word 0xf85e83ac
.word 0xf9401989
.word 0xaa0903e2
.word 0xaa0803e1
.word 0xaa1303e0
.word 0xa9bf7ffe
bl _DebuggerCallEachOp
.word 0xa8c17ffe
.word 0xf85f8e81
.word 0xf85f8e80
Label_611:
.word 0x38406ec8
.word 0x91000108
.word 0xf8685aa9
.word 0xd61f0120
.global _dispatch_table_1_84
_dispatch_table_1_84:
.word 0xaa0003e1
.word 0xf85f8e80
.global _dispatch_table_2_84
_dispatch_table_2_84:
.word 0xb84012c8
.word 0x394016c9
.word 0xd288a023
.word 0xf27e013f
b.EQ Label_612
.word 0xb27e0063
Label_612:
.word 0x92400529
.word 0xf100013f
b.NE Label_613
.word 0xd2844044
.word 0xaa040063
b Label_615
Label_613:
.word 0xf100053f
b.NE Label_614
.word 0xb2750063
b Label_615
Label_614:
.word 0xb2740063
Label_615:
.word 0xf8008680
.word 0xf8008681
.word 0xf85b83b1
.word 0xf9002234
.word 0xf8008683
.word 0xaa0003e4
.word 0xaa0803e2
.word 0xaa1303e0
.word 0xa9bf7ffe
bl _js_method_set_properties_gc
.word 0xa8c17ffe
.word 0xf85f8e83
.word 0x7100001f
b.LT Label_616
.word 0xf85f8281
.word 0xf85f0280
.word 0xb84012c8
.word 0xaa0303e6
.word 0xaa0103e5
.word 0xaa0103e4
.word 0xaa0103e3
.word 0xaa0803e2
.word 0xaa0003e1
.word 0xaa1303e0
.word 0xa9bf7ffe
bl _LEPUS_DefineProperty
.word 0xa8c17ffe
Label_616:
.word 0xaa0003f9
.word 0xf85f8e81
.word 0x7100033f
b.GE Label_617
.word 0x91001ad6
.word 0xf85b83b1
.word 0xf9002234
b __exception_handler_entry
Label_617:
.word 0xb9414269
cbz w9, Label_618
.word 0xf8008680
.word 0xf8008681
.word 0xb1001ec8
.word 0xf85e83ac
.word 0xf9401989
.word 0xaa0903e2
.word 0xaa0803e1
.word 0xaa1303e0
.word 0xa9bf7ffe
bl _DebuggerCallEachOp
.word 0xa8c17ffe
.word 0xf85f8e81
.word 0xf85f8e80
Label_618:
.word 0x38406ec8
.word 0x91000108
.word 0xf8685aa9
.word 0xd61f0120
.global _dispatch_table_0_85
_dispatch_table_0_85:
.word 0xa9ff0680
.word 0xf8008680
.word 0xf8008681
.word 0xf85b83b1
.word 0xf9002234
.word 0xaa0003e1
.word 0xaa1303e0
.word 0xa9bf7ffe
bl _LEPUS_ValueToAtom
.word 0xa8c17ffe
.word 0xf100001f
b.NE Label_619
.word 0x91000ad6
.word 0xf85b83b1
.word 0xf9002234
b __exception_handler_entry
Label_619:
.word 0xaa0003e8
.word 0x394006c9
.word 0xd288a023
.word 0xf27e013f
b.EQ Label_620
.word 0xb27e0063
Label_620:
.word 0x92400529
.word 0xf100013f
b.NE Label_621
.word 0xd2844044
.word 0xaa040063
b Label_623
Label_621:
.word 0xf100053f
b.NE Label_622
.word 0xb2750063
b Label_623
Label_622:
.word 0xb2740063
Label_623:
.word 0xaa0303f9
.word 0xf85f8281
.word 0xf85f0280
.word 0xf85e8289
.word 0xf85b83b1
.word 0xf9002234
.word 0xf8008688
.word 0xaa0903e4
.word 0xaa1903e3
.word 0xaa0803e2
.word 0xaa1303e0
.word 0xa9bf7ffe
bl _js_method_set_properties_gc
.word 0xa8c17ffe
.word 0x7100001f
b.LT Label_624
.word 0xf85f8288
.word 0xf85f0281
.word 0xf85e8280
.word 0xf85e0289
.word 0xaa1903e6
.word 0xaa0103e5
.word 0xaa0103e4
.word 0xaa0103e3
.word 0xaa0803e2
.word 0xaa0903e1
.word 0xaa1303e0
.word 0xa9bf7ffe
bl _LEPUS_DefineProperty
.word 0xa8c17ffe
Label_624:
.word 0xaa0003f9
.word 0xf85f8e88
.word 0xf85f8e81
.word 0xf85f8e80
.word 0x7100033f
b.GE Label_625
.word 0x91000ad6
.word 0xf85b83b1
.word 0xf9002234
b __exception_handler_entry
Label_625:
.word 0xb9414269
cbz w9, Label_626
.word 0xf8008680
.word 0xf8008681
.word 0xb1000ec8
.word 0xf85e83ac
.word 0xf9401989
.word 0xaa0903e2
.word 0xaa0803e1
.word 0xaa1303e0
.word 0xa9bf7ffe
bl _DebuggerCallEachOp
.word 0xa8c17ffe
.word 0xf85f8e81
.word 0xf85f8e80
Label_626:
.word 0x38402ec8
.word 0x91000108
.word 0xf8685aa9
.word 0xd61f0120
.global _dispatch_table_1_85
_dispatch_table_1_85:
.word 0xaa0003e1
.word 0xf85f8e80
.global _dispatch_table_2_85
_dispatch_table_2_85:
.word 0xf8008680
.word 0xf8008681
.word 0xf85b83b1
.word 0xf9002234
.word 0xaa0003e1
.word 0xaa1303e0
.word 0xa9bf7ffe
bl _LEPUS_ValueToAtom
.word 0xa8c17ffe
.word 0xf100001f
b.NE Label_627
.word 0x91000ad6
.word 0xf85b83b1
.word 0xf9002234
b __exception_handler_entry
Label_627:
.word 0xaa0003e8
.word 0x394006c9
.word 0xd288a023
.word 0xf27e013f
b.EQ Label_628
.word 0xb27e0063
Label_628:
.word 0x92400529
.word 0xf100013f
b.NE Label_629
.word 0xd2844044
.word 0xaa040063
b Label_631
Label_629:
.word 0xf100053f
b.NE Label_630
.word 0xb2750063
b Label_631
Label_630:
.word 0xb2740063
Label_631:
.word 0xaa0303f9
.word 0xf85f8281
.word 0xf85f0280
.word 0xf85e8289
.word 0xf85b83b1
.word 0xf9002234
.word 0xf8008688
.word 0xaa0903e4
.word 0xaa1903e3
.word 0xaa0803e2
.word 0xaa1303e0
.word 0xa9bf7ffe
bl _js_method_set_properties_gc
.word 0xa8c17ffe
.word 0x7100001f
b.LT Label_632
.word 0xf85f8288
.word 0xf85f0281
.word 0xf85e8280
.word 0xf85e0289
.word 0xaa1903e6
.word 0xaa0103e5
.word 0xaa0103e4
.word 0xaa0103e3
.word 0xaa0803e2
.word 0xaa0903e1
.word 0xaa1303e0
.word 0xa9bf7ffe
bl _LEPUS_DefineProperty
.word 0xa8c17ffe
Label_632:
.word 0xaa0003f9
.word 0xf85f8e88
.word 0xf85f8e81
.word 0xf85f8e80
.word 0x7100033f
b.GE Label_633
.word 0x91000ad6
.word 0xf85b83b1
.word 0xf9002234
b __exception_handler_entry
Label_633:
.word 0xb9414269
cbz w9, Label_634
.word 0xf8008680
.word 0xf8008681
.word 0xb1000ec8
.word 0xf85e83ac
.word 0xf9401989
.word 0xaa0903e2
.word 0xaa0803e1
.word 0xaa1303e0
.word 0xa9bf7ffe
bl _DebuggerCallEachOp
.word 0xa8c17ffe
.word 0xf85f8e81
.word 0xf85f8e80
Label_634:
.word 0x38402ec8
.word 0x91000108
.word 0xf8685aa9
.word 0xd61f0120
.global _dispatch_table_1_86
_dispatch_table_1_86:
.word 0xf8008680
.word 0xf85b83b1
.word 0xf9002234
.word 0xb84012c8
.word 0x394016c9
.word 0xf85b83b1
.word 0xd2800006
.word 0xf9002234
.word 0xaa1103e5
.word 0xaa1c03e4
.word 0xaa0903e3
.word 0xaa0803e2
.word 0xaa1403e1
.word 0xaa1303e0
.word 0xa9bf7ffe
bl _js_op_define_class
.word 0xa8c17ffe
.word 0x7100001f
b.GE Label_635
.word 0x91001ad6
.word 0xf85b83b1
.word 0xf9002234
b __exception_handler_entry
Label_635:
.word 0xb9414269
cbz w9, Label_636
.word 0xf8008680
.word 0xf8008681
.word 0xb1001ec8
.word 0xf85e83ac
.word 0xf9401989
.word 0xaa0903e2
.word 0xaa0803e1
.word 0xaa1303e0
.word 0xa9bf7ffe
bl _DebuggerCallEachOp
.word 0xa8c17ffe
.word 0xf85f8e81
.word 0xf85f8e80
Label_636:
.word 0x38406ec8
.word 0x91000108
.word 0xf8685aa9
.word 0xd61f0120
.global _dispatch_table_2_86
_dispatch_table_2_86:
.word 0xa8810680
.word 0xf85b83b1
.word 0xf9002234
.global _dispatch_table_0_86
_dispatch_table_0_86:
.word 0xb84012c8
.word 0x394016c9
.word 0xf85b83b1
.word 0xd2800006
.word 0xf9002234
.word 0xaa1103e5
.word 0xaa1c03e4
.word 0xaa0903e3
.word 0xaa0803e2
.word 0xaa1403e1
.word 0xaa1303e0
.word 0xa9bf7ffe
bl _js_op_define_class
.word 0xa8c17ffe
.word 0x7100001f
b.GE Label_637
.word 0x91001ad6
.word 0xf85b83b1
.word 0xf9002234
b __exception_handler_entry
Label_637:
.word 0xb9414269
cbz w9, Label_638
.word 0xf8008680
.word 0xf8008681
.word 0xb1001ec8
.word 0xf85e83ac
.word 0xf9401989
.word 0xaa0903e2
.word 0xaa0803e1
.word 0xaa1303e0
.word 0xa9bf7ffe
bl _DebuggerCallEachOp
.word 0xa8c17ffe
.word 0xf85f8e81
.word 0xf85f8e80
Label_638:
.word 0x38406ec8
.word 0x91000108
.word 0xf8685aa9
.word 0xd61f0120
.global _dispatch_table_0_87
_dispatch_table_0_87:
.word 0x784012c8
.word 0x8b080f08
.word 0xf9400100
.word 0xb9414269
cbz w9, Label_639
.word 0xf8008680
.word 0xf8008681
.word 0xb10012c8
.word 0xf85e83ac
.word 0xf9401989
.word 0xaa0903e2
.word 0xaa0803e1
.word 0xaa1303e0
.word 0xa9bf7ffe
bl _DebuggerCallEachOp
.word 0xa8c17ffe
.word 0xf85f8e81
.word 0xf85f8e80
Label_639:
.word 0x38403ec8
.word 0x9103c908
.word 0xf8685aa9
.word 0xd61f0120
.global _dispatch_table_1_87
_dispatch_table_1_87:
.word 0x784012c8
.word 0x8b080f08
.word 0xf9400101
.word 0xb9414269
cbz w9, Label_640
.word 0xf8008680
.word 0xf8008681
.word 0xb10012c8
.word 0xf85e83ac
.word 0xf9401989
.word 0xaa0903e2
.word 0xaa0803e1
.word 0xaa1303e0
.word 0xa9bf7ffe
bl _DebuggerCallEachOp
.word 0xa8c17ffe
.word 0xf85f8e81
.word 0xf85f8e80
Label_640:
.word 0x38403ec8
.word 0x91079108
.word 0xf8685aa9
.word 0xd61f0120
.global _dispatch_table_2_87
_dispatch_table_2_87:
.word 0x784012c8
.word 0x8b080f08
.word 0xf8008680
.word 0xaa0103e0
.word 0xf9400101
.word 0xb9414269
cbz w9, Label_641
.word 0xf8008680
.word 0xf8008681
.word 0xb10012c8
.word 0xf85e83ac
.word 0xf9401989
.word 0xaa0903e2
.word 0xaa0803e1
.word 0xaa1303e0
.word 0xa9bf7ffe
bl _DebuggerCallEachOp
.word 0xa8c17ffe
.word 0xf85f8e81
.word 0xf85f8e80
Label_641:
.word 0x38403ec8
.word 0x91079108
.word 0xf8685aa9
.word 0xd61f0120
.global _dispatch_table_0_88
_dispatch_table_0_88:
.word 0x784012c8
.word 0x8b080f08
.word 0xf85f8e80
.word 0xf9000100
.word 0xb9414269
cbz w9, Label_642
.word 0xf8008680
.word 0xf8008681
.word 0xb10012c8
.word 0xf85e83ac
.word 0xf9401989
.word 0xaa0903e2
.word 0xaa0803e1
.word 0xaa1303e0
.word 0xa9bf7ffe
bl _DebuggerCallEachOp
.word 0xa8c17ffe
.word 0xf85f8e81
.word 0xf85f8e80
Label_642:
.word 0x38403ec8
.word 0x91000108
.word 0xf8685aa9
.word 0xd61f0120
.global _dispatch_table_1_88
_dispatch_table_1_88:
.word 0x784012c8
.word 0x8b080f08
.word 0xf9000100
.word 0xb9414269
cbz w9, Label_643
.word 0xf8008680
.word 0xf8008681
.word 0xb10012c8
.word 0xf85e83ac
.word 0xf9401989
.word 0xaa0903e2
.word 0xaa0803e1
.word 0xaa1303e0
.word 0xa9bf7ffe
bl _DebuggerCallEachOp
.word 0xa8c17ffe
.word 0xf85f8e81
.word 0xf85f8e80
Label_643:
.word 0x38403ec8
.word 0x91000108
.word 0xf8685aa9
.word 0xd61f0120
.global _dispatch_table_2_88
_dispatch_table_2_88:
.word 0x784012c8
.word 0x8b080f08
.word 0xf9000101
.word 0xaa0003f9
.word 0xaa1903e0
.word 0xb9414269
cbz w9, Label_644
.word 0xf8008680
.word 0xf8008681
.word 0xb10012c8
.word 0xf85e83ac
.word 0xf9401989
.word 0xaa0903e2
.word 0xaa0803e1
.word 0xaa1303e0
.word 0xa9bf7ffe
bl _DebuggerCallEachOp
.word 0xa8c17ffe
.word 0xf85f8e81
.word 0xf85f8e80
Label_644:
.word 0x38403ec8
.word 0x9103c908
.word 0xf8685aa9
.word 0xd61f0120
.global _dispatch_table_0_89
_dispatch_table_0_89:
.word 0x784012c8
.word 0x8b080f08
.word 0xf9400109
.word 0xf85f8e80
.word 0xf9000100
.word 0xb9414269
cbz w9, Label_645
.word 0xf8008680
.word 0xf8008681
.word 0xb10012c8
.word 0xf85e83ac
.word 0xf9401989
.word 0xaa0903e2
.word 0xaa0803e1
.word 0xaa1303e0
.word 0xa9bf7ffe
bl _DebuggerCallEachOp
.word 0xa8c17ffe
.word 0xf85f8e81
.word 0xf85f8e80
Label_645:
.word 0x38403ec8
.word 0x9103c908
.word 0xf8685aa9
.word 0xd61f0120
.global _dispatch_table_1_89
_dispatch_table_1_89:
.word 0x784012c8
.word 0x8b080f08
.word 0xf9400109
.word 0xf9000100
.word 0xb9414269
cbz w9, Label_646
.word 0xf8008680
.word 0xf8008681
.word 0xb10012c8
.word 0xf85e83ac
.word 0xf9401989
.word 0xaa0903e2
.word 0xaa0803e1
.word 0xaa1303e0
.word 0xa9bf7ffe
bl _DebuggerCallEachOp
.word 0xa8c17ffe
.word 0xf85f8e81
.word 0xf85f8e80
Label_646:
.word 0x38403ec8
.word 0x9103c908
.word 0xf8685aa9
.word 0xd61f0120
.global _dispatch_table_2_89
_dispatch_table_2_89:
.word 0x784012c8
.word 0x8b080f08
.word 0xf9400109
.word 0xf9000101
.word 0xb9414269
cbz w9, Label_647
.word 0xf8008680
.word 0xf8008681
.word 0xb10012c8
.word 0xf85e83ac
.word 0xf9401989
.word 0xaa0903e2
.word 0xaa0803e1
.word 0xaa1303e0
.word 0xa9bf7ffe
bl _DebuggerCallEachOp
.word 0xa8c17ffe
.word 0xf85f8e81
.word 0xf85f8e80
Label_647:
.word 0x38403ec8
.word 0x91079108
.word 0xf8685aa9
.word 0xd61f0120
.global _dispatch_table_0_90
_dispatch_table_0_90:
.word 0x784012c8
.word 0x8b080ee8
.word 0xf9400100
.word 0xb9414269
cbz w9, Label_648
.word 0xf8008680
.word 0xf8008681
.word 0xb10012c8
.word 0xf85e83ac
.word 0xf9401989
.word 0xaa0903e2
.word 0xaa0803e1
.word 0xaa1303e0
.word 0xa9bf7ffe
bl _DebuggerCallEachOp
.word 0xa8c17ffe
.word 0xf85f8e81
.word 0xf85f8e80
Label_648:
.word 0x38403ec8
.word 0x9103c908
.word 0xf8685aa9
.word 0xd61f0120
.global _dispatch_table_1_90
_dispatch_table_1_90:
.word 0x784012c8
.word 0x8b080ee8
.word 0xf9400101
.word 0xb9414269
cbz w9, Label_649
.word 0xf8008680
.word 0xf8008681
.word 0xb10012c8
.word 0xf85e83ac
.word 0xf9401989
.word 0xaa0903e2
.word 0xaa0803e1
.word 0xaa1303e0
.word 0xa9bf7ffe
bl _DebuggerCallEachOp
.word 0xa8c17ffe
.word 0xf85f8e81
.word 0xf85f8e80
Label_649:
.word 0x38403ec8
.word 0x91079108
.word 0xf8685aa9
.word 0xd61f0120
.global _dispatch_table_2_90
_dispatch_table_2_90:
.word 0x784012c8
.word 0x8b080ee8
.word 0xf8008680
.word 0xaa0103e0
.word 0xf9400101
.word 0xb9414269
cbz w9, Label_650
.word 0xf8008680
.word 0xf8008681
.word 0xb10012c8
.word 0xf85e83ac
.word 0xf9401989
.word 0xaa0903e2
.word 0xaa0803e1
.word 0xaa1303e0
.word 0xa9bf7ffe
bl _DebuggerCallEachOp
.word 0xa8c17ffe
.word 0xf85f8e81
.word 0xf85f8e80
Label_650:
.word 0x38403ec8
.word 0x91079108
.word 0xf8685aa9
.word 0xd61f0120
.global _dispatch_table_0_91
_dispatch_table_0_91:
.word 0x784012c8
.word 0x8b080ee8
.word 0xf9400109
.word 0xf85f8e80
.word 0xf9000100
.word 0xb9414269
cbz w9, Label_651
.word 0xf8008680
.word 0xf8008681
.word 0xb10012c8
.word 0xf85e83ac
.word 0xf9401989
.word 0xaa0903e2
.word 0xaa0803e1
.word 0xaa1303e0
.word 0xa9bf7ffe
bl _DebuggerCallEachOp
.word 0xa8c17ffe
.word 0xf85f8e81
.word 0xf85f8e80
Label_651:
.word 0x38403ec8
.word 0x91000108
.word 0xf8685aa9
.word 0xd61f0120
.global _dispatch_table_1_91
_dispatch_table_1_91:
.word 0x784012c8
.word 0x8b080ee8
.word 0xf9400109
.word 0xf9000100
.word 0xb9414269
cbz w9, Label_652
.word 0xf8008680
.word 0xf8008681
.word 0xb10012c8
.word 0xf85e83ac
.word 0xf9401989
.word 0xaa0903e2
.word 0xaa0803e1
.word 0xaa1303e0
.word 0xa9bf7ffe
bl _DebuggerCallEachOp
.word 0xa8c17ffe
.word 0xf85f8e81
.word 0xf85f8e80
Label_652:
.word 0x38403ec8
.word 0x91000108
.word 0xf8685aa9
.word 0xd61f0120
.global _dispatch_table_2_91
_dispatch_table_2_91:
.word 0x784012c8
.word 0x8b080ee8
.word 0xf9400109
.word 0xf9000101
.word 0xb9414269
cbz w9, Label_653
.word 0xf8008680
.word 0xf8008681
.word 0xb10012c8
.word 0xf85e83ac
.word 0xf9401989
.word 0xaa0903e2
.word 0xaa0803e1
.word 0xaa1303e0
.word 0xa9bf7ffe
bl _DebuggerCallEachOp
.word 0xa8c17ffe
.word 0xf85f8e81
.word 0xf85f8e80
Label_653:
.word 0x38403ec8
.word 0x9103c908
.word 0xf8685aa9
.word 0xd61f0120
.global _dispatch_table_0_92
_dispatch_table_0_92:
.word 0x784012c8
.word 0x8b080ee8
.word 0xf9400109
.word 0xf85f8e80
.word 0xf9000100
.word 0xb9414269
cbz w9, Label_654
.word 0xf8008680
.word 0xf8008681
.word 0xb10012c8
.word 0xf85e83ac
.word 0xf9401989
.word 0xaa0903e2
.word 0xaa0803e1
.word 0xaa1303e0
.word 0xa9bf7ffe
bl _DebuggerCallEachOp
.word 0xa8c17ffe
.word 0xf85f8e81
.word 0xf85f8e80
Label_654:
.word 0x38403ec8
.word 0x9103c908
.word 0xf8685aa9
.word 0xd61f0120
.global _dispatch_table_1_92
_dispatch_table_1_92:
.word 0x784012c8
.word 0x8b080ee8
.word 0xf9400109
.word 0xf9000100
.word 0xb9414269
cbz w9, Label_655
.word 0xf8008680
.word 0xf8008681
.word 0xb10012c8
.word 0xf85e83ac
.word 0xf9401989
.word 0xaa0903e2
.word 0xaa0803e1
.word 0xaa1303e0
.word 0xa9bf7ffe
bl _DebuggerCallEachOp
.word 0xa8c17ffe
.word 0xf85f8e81
.word 0xf85f8e80
Label_655:
.word 0x38403ec8
.word 0x9103c908
.word 0xf8685aa9
.word 0xd61f0120
.global _dispatch_table_2_92
_dispatch_table_2_92:
.word 0x784012c8
.word 0x8b080ee8
.word 0xf9400109
.word 0xf9000101
.word 0xb9414269
cbz w9, Label_656
.word 0xf8008680
.word 0xf8008681
.word 0xb10012c8
.word 0xf85e83ac
.word 0xf9401989
.word 0xaa0903e2
.word 0xaa0803e1
.word 0xaa1303e0
.word 0xa9bf7ffe
bl _DebuggerCallEachOp
.word 0xa8c17ffe
.word 0xf85f8e81
.word 0xf85f8e80
Label_656:
.word 0x38403ec8
.word 0x91079108
.word 0xf8685aa9
.word 0xd61f0120
.global _dispatch_table_0_93
_dispatch_table_0_93:
.word 0x784012c8
.word 0x8b080f88
.word 0xf9400108
.word 0xf9401108
.word 0xf9400100
.word 0xb9414269
cbz w9, Label_657
.word 0xf8008680
.word 0xf8008681
.word 0xb10012c8
.word 0xf85e83ac
.word 0xf9401989
.word 0xaa0903e2
.word 0xaa0803e1
.word 0xaa1303e0
.word 0xa9bf7ffe
bl _DebuggerCallEachOp
.word 0xa8c17ffe
.word 0xf85f8e81
.word 0xf85f8e80
Label_657:
.word 0x38403ec8
.word 0x9103c908
.word 0xf8685aa9
.word 0xd61f0120
.global _dispatch_table_1_93
_dispatch_table_1_93:
.word 0x784012c8
.word 0x8b080f88
.word 0xf9400108
.word 0xf9401108
.word 0xf9400101
.word 0xb9414269
cbz w9, Label_658
.word 0xf8008680
.word 0xf8008681
.word 0xb10012c8
.word 0xf85e83ac
.word 0xf9401989
.word 0xaa0903e2
.word 0xaa0803e1
.word 0xaa1303e0
.word 0xa9bf7ffe
bl _DebuggerCallEachOp
.word 0xa8c17ffe
.word 0xf85f8e81
.word 0xf85f8e80
Label_658:
.word 0x38403ec8
.word 0x91079108
.word 0xf8685aa9
.word 0xd61f0120
.global _dispatch_table_2_93
_dispatch_table_2_93:
.word 0x784012c8
.word 0x8b080f88
.word 0xf9400108
.word 0xf9401108
.word 0xf8008680
.word 0xaa0103e0
.word 0xf9400101
.word 0xb9414269
cbz w9, Label_659
.word 0xf8008680
.word 0xf8008681
.word 0xb10012c8
.word 0xf85e83ac
.word 0xf9401989
.word 0xaa0903e2
.word 0xaa0803e1
.word 0xaa1303e0
.word 0xa9bf7ffe
bl _DebuggerCallEachOp
.word 0xa8c17ffe
.word 0xf85f8e81
.word 0xf85f8e80
Label_659:
.word 0x38403ec8
.word 0x91079108
.word 0xf8685aa9
.word 0xd61f0120
.global _dispatch_table_0_94
_dispatch_table_0_94:
.word 0x784012c8
.word 0x8b080f88
.word 0xf9400108
.word 0xf9401108
.word 0xf9400109
.word 0xf85f8e80
.word 0xf9000100
.word 0xb9414269
cbz w9, Label_660
.word 0xf8008680
.word 0xf8008681
.word 0xb10012c8
.word 0xf85e83ac
.word 0xf9401989
.word 0xaa0903e2
.word 0xaa0803e1
.word 0xaa1303e0
.word 0xa9bf7ffe
bl _DebuggerCallEachOp
.word 0xa8c17ffe
.word 0xf85f8e81
.word 0xf85f8e80
Label_660:
.word 0x38403ec8
.word 0x91000108
.word 0xf8685aa9
.word 0xd61f0120
.global _dispatch_table_1_94
_dispatch_table_1_94:
.word 0x784012c8
.word 0x8b080f88
.word 0xf9400108
.word 0xf9401108
.word 0xf9400109
.word 0xf9000100
.word 0xb9414269
cbz w9, Label_661
.word 0xf8008680
.word 0xf8008681
.word 0xb10012c8
.word 0xf85e83ac
.word 0xf9401989
.word 0xaa0903e2
.word 0xaa0803e1
.word 0xaa1303e0
.word 0xa9bf7ffe
bl _DebuggerCallEachOp
.word 0xa8c17ffe
.word 0xf85f8e81
.word 0xf85f8e80
Label_661:
.word 0x38403ec8
.word 0x91000108
.word 0xf8685aa9
.word 0xd61f0120
.global _dispatch_table_2_94
_dispatch_table_2_94:
.word 0x784012c8
.word 0x8b080f88
.word 0xf9400108
.word 0xf9401108
.word 0xf9400109
.word 0xf9000101
.word 0xb9414269
cbz w9, Label_662
.word 0xf8008680
.word 0xf8008681
.word 0xb10012c8
.word 0xf85e83ac
.word 0xf9401989
.word 0xaa0903e2
.word 0xaa0803e1
.word 0xaa1303e0
.word 0xa9bf7ffe
bl _DebuggerCallEachOp
.word 0xa8c17ffe
.word 0xf85f8e81
.word 0xf85f8e80
Label_662:
.word 0x38403ec8
.word 0x9103c908
.word 0xf8685aa9
.word 0xd61f0120
.global _dispatch_table_0_95
_dispatch_table_0_95:
.word 0x784012c8
.word 0x8b080f88
.word 0xf9400108
.word 0xf9401108
.word 0xf9400109
.word 0xf85f8e80
.word 0xf9000100
.word 0xb9414269
cbz w9, Label_663
.word 0xf8008680
.word 0xf8008681
.word 0xb10012c8
.word 0xf85e83ac
.word 0xf9401989
.word 0xaa0903e2
.word 0xaa0803e1
.word 0xaa1303e0
.word 0xa9bf7ffe
bl _DebuggerCallEachOp
.word 0xa8c17ffe
.word 0xf85f8e81
.word 0xf85f8e80
Label_663:
.word 0x38403ec8
.word 0x9103c908
.word 0xf8685aa9
.word 0xd61f0120
.global _dispatch_table_1_95
_dispatch_table_1_95:
.word 0x784012c8
.word 0x8b080f88
.word 0xf9400108
.word 0xf9401108
.word 0xf9400109
.word 0xf9000100
.word 0xb9414269
cbz w9, Label_664
.word 0xf8008680
.word 0xf8008681
.word 0xb10012c8
.word 0xf85e83ac
.word 0xf9401989
.word 0xaa0903e2
.word 0xaa0803e1
.word 0xaa1303e0
.word 0xa9bf7ffe
bl _DebuggerCallEachOp
.word 0xa8c17ffe
.word 0xf85f8e81
.word 0xf85f8e80
Label_664:
.word 0x38403ec8
.word 0x9103c908
.word 0xf8685aa9
.word 0xd61f0120
.global _dispatch_table_2_95
_dispatch_table_2_95:
.word 0x784012c8
.word 0x8b080f88
.word 0xf9400108
.word 0xf9401108
.word 0xf9400109
.word 0xf9000101
.word 0xb9414269
cbz w9, Label_665
.word 0xf8008680
.word 0xf8008681
.word 0xb10012c8
.word 0xf85e83ac
.word 0xf9401989
.word 0xaa0903e2
.word 0xaa0803e1
.word 0xaa1303e0
.word 0xa9bf7ffe
bl _DebuggerCallEachOp
.word 0xa8c17ffe
.word 0xf85f8e81
.word 0xf85f8e80
Label_665:
.word 0x38403ec8
.word 0x91079108
.word 0xf8685aa9
.word 0xd61f0120
.global _dispatch_table_1_96
_dispatch_table_1_96:
.word 0xf8008680
.word 0xf85b83b1
.word 0xf9002234
.word 0x784012c8
.word 0x8b080f08
.word 0xf9400109
.word 0xd2800440
.word 0xf9000100
.word 0xb9414269
cbz w9, Label_666
.word 0xf8008680
.word 0xf8008681
.word 0xb10012c8
.word 0xf85e83ac
.word 0xf9401989
.word 0xaa0903e2
.word 0xaa0803e1
.word 0xaa1303e0
.word 0xa9bf7ffe
bl _DebuggerCallEachOp
.word 0xa8c17ffe
.word 0xf85f8e81
.word 0xf85f8e80
Label_666:
.word 0x38403ec8
.word 0x91000108
.word 0xf8685aa9
.word 0xd61f0120
.global _dispatch_table_2_96
_dispatch_table_2_96:
.word 0xa8810680
.word 0xf85b83b1
.word 0xf9002234
.global _dispatch_table_0_96
_dispatch_table_0_96:
.word 0x784012c8
.word 0x8b080f08
.word 0xf9400109
.word 0xd2800440
.word 0xf9000100
.word 0xb9414269
cbz w9, Label_667
.word 0xf8008680
.word 0xf8008681
.word 0xb10012c8
.word 0xf85e83ac
.word 0xf9401989
.word 0xaa0903e2
.word 0xaa0803e1
.word 0xaa1303e0
.word 0xa9bf7ffe
bl _DebuggerCallEachOp
.word 0xa8c17ffe
.word 0xf85f8e81
.word 0xf85f8e80
Label_667:
.word 0x38403ec8
.word 0x91000108
.word 0xf8685aa9
.word 0xd61f0120
.global _dispatch_table_0_97
_dispatch_table_0_97:
.word 0x784012c8
.word 0x8b080f08
.word 0xf9400109
.word 0xf100893f
b.NE Label_668
.word 0xd2800001
.word 0xf85b83b1
.word 0xf9002234
.word 0xaa1303e0
.word 0xa9bf7ffe
bl _JS_ThrowReferenceErrorUninitialized_GC
.word 0xa8c17ffe
.word 0x91000ed6
.word 0xf85b83b1
.word 0xf9002234
b __exception_handler_entry
Label_668:
.word 0xaa0903e0
.word 0xb9414269
cbz w9, Label_669
.word 0xf8008680
.word 0xf8008681
.word 0xb10012c8
.word 0xf85e83ac
.word 0xf9401989
.word 0xaa0903e2
.word 0xaa0803e1
.word 0xaa1303e0
.word 0xa9bf7ffe
bl _DebuggerCallEachOp
.word 0xa8c17ffe
.word 0xf85f8e81
.word 0xf85f8e80
Label_669:
.word 0x38403ec8
.word 0x9103c908
.word 0xf8685aa9
.word 0xd61f0120
.global _dispatch_table_1_97
_dispatch_table_1_97:
.word 0x784012c8
.word 0x8b080f08
.word 0xf9400109
.word 0xf100893f
b.NE Label_670
.word 0xf8008680
.word 0xd2800001
.word 0xf85b83b1
.word 0xf9002234
.word 0xaa1303e0
.word 0xa9bf7ffe
bl _JS_ThrowReferenceErrorUninitialized_GC
.word 0xa8c17ffe
.word 0x91000ed6
.word 0xf85b83b1
.word 0xf9002234
b __exception_handler_entry
Label_670:
.word 0xaa0903e1
.word 0xb9414269
cbz w9, Label_671
.word 0xf8008680
.word 0xf8008681
.word 0xb10012c8
.word 0xf85e83ac
.word 0xf9401989
.word 0xaa0903e2
.word 0xaa0803e1
.word 0xaa1303e0
.word 0xa9bf7ffe
bl _DebuggerCallEachOp
.word 0xa8c17ffe
.word 0xf85f8e81
.word 0xf85f8e80
Label_671:
.word 0x38403ec8
.word 0x91079108
.word 0xf8685aa9
.word 0xd61f0120
.global _dispatch_table_2_97
_dispatch_table_2_97:
.word 0x784012c8
.word 0x8b080f08
.word 0xf9400109
.word 0xf100893f
b.NE Label_672
.word 0xf8008680
.word 0xf8008681
.word 0xd2800001
.word 0xf85b83b1
.word 0xf9002234
.word 0xaa1303e0
.word 0xa9bf7ffe
bl _JS_ThrowReferenceErrorUninitialized_GC
.word 0xa8c17ffe
.word 0x91000ed6
.word 0xf85b83b1
.word 0xf9002234
b __exception_handler_entry
Label_672:
.word 0xf8008680
.word 0xaa0103e0
.word 0xaa0903e1
.word 0xb9414269
cbz w9, Label_673
.word 0xf8008680
.word 0xf8008681
.word 0xb10012c8
.word 0xf85e83ac
.word 0xf9401989
.word 0xaa0903e2
.word 0xaa0803e1
.word 0xaa1303e0
.word 0xa9bf7ffe
bl _DebuggerCallEachOp
.word 0xa8c17ffe
.word 0xf85f8e81
.word 0xf85f8e80
Label_673:
.word 0x38403ec8
.word 0x91079108
.word 0xf8685aa9
.word 0xd61f0120
.global _dispatch_table_2_98
_dispatch_table_2_98:
.word 0xf8008680
.word 0xaa0103e0
.word 0xf85b83b1
.word 0xf9002234
.word 0x784012c8
.word 0x8b080f08
.word 0xf9400109
.word 0xf100893f
b.NE Label_674
.word 0xf8008680
.word 0xd2800001
.word 0xaa1303e0
.word 0xa9bf7ffe
bl _JS_ThrowReferenceErrorUninitialized_GC
.word 0xa8c17ffe
.word 0x91000ed6
b __exception_handler_entry
Label_674:
.word 0xf9000100
.word 0xb9414269
cbz w9, Label_675
.word 0xf8008680
.word 0xf8008681
.word 0xb10012c8
.word 0xf85e83ac
.word 0xf9401989
.word 0xaa0903e2
.word 0xaa0803e1
.word 0xaa1303e0
.word 0xa9bf7ffe
bl _DebuggerCallEachOp
.word 0xa8c17ffe
.word 0xf85f8e81
.word 0xf85f8e80
Label_675:
.word 0x38403ec8
.word 0x91000108
.word 0xf8685aa9
.word 0xd61f0120
.global _dispatch_table_0_98
_dispatch_table_0_98:
.word 0xf85f8e80
.global _dispatch_table_1_98
_dispatch_table_1_98:
.word 0x784012c8
.word 0x8b080f08
.word 0xf9400109
.word 0xf100893f
b.NE Label_676
.word 0xf8008680
.word 0xd2800001
.word 0xaa1303e0
.word 0xa9bf7ffe
bl _JS_ThrowReferenceErrorUninitialized_GC
.word 0xa8c17ffe
.word 0x91000ed6
b __exception_handler_entry
Label_676:
.word 0xf9000100
.word 0xb9414269
cbz w9, Label_677
.word 0xf8008680
.word 0xf8008681
.word 0xb10012c8
.word 0xf85e83ac
.word 0xf9401989
.word 0xaa0903e2
.word 0xaa0803e1
.word 0xaa1303e0
.word 0xa9bf7ffe
bl _DebuggerCallEachOp
.word 0xa8c17ffe
.word 0xf85f8e81
.word 0xf85f8e80
Label_677:
.word 0x38403ec8
.word 0x91000108
.word 0xf8685aa9
.word 0xd61f0120
.global _dispatch_table_2_99
_dispatch_table_2_99:
.word 0xf8008680
.word 0xaa0103e0
.word 0xf85b83b1
.word 0xf9002234
.word 0x784012c8
.word 0x8b080f08
.word 0xf9400109
.word 0xd280044a
.word 0xeb0a013f
b.EQ Label_678
.word 0xf8008680
adr x1, Label_679
b Label_680
Label_679:
.asciz "'this' can be initialized only once"
.align 3
Label_680:
.word 0xf85b83b1
.word 0xf9002234
.word 0xaa1303e0
.word 0xa9bf7ffe
bl _LEPUS_ThrowReferenceError
.word 0xa8c17ffe
.word 0xf85b83b1
.word 0xf9002234
.word 0x91000ed6
b __exception_handler_entry
Label_678:
.word 0xf9000100
.word 0xb9414269
cbz w9, Label_681
.word 0xf8008680
.word 0xf8008681
.word 0xb10012c8
.word 0xf85e83ac
.word 0xf9401989
.word 0xaa0903e2
.word 0xaa0803e1
.word 0xaa1303e0
.word 0xa9bf7ffe
bl _DebuggerCallEachOp
.word 0xa8c17ffe
.word 0xf85f8e81
.word 0xf85f8e80
Label_681:
.word 0x38403ec8
.word 0x91000108
.word 0xf8685aa9
.word 0xd61f0120
.global _dispatch_table_0_99
_dispatch_table_0_99:
.word 0xf85f8e80
.global _dispatch_table_1_99
_dispatch_table_1_99:
.word 0x784012c8
.word 0x8b080f08
.word 0xf9400109
.word 0xd280044a
.word 0xeb0a013f
b.EQ Label_682
.word 0xf8008680
adr x1, Label_683
b Label_684
Label_683:
.asciz "'this' can be initialized only once"
.align 3
Label_684:
.word 0xf85b83b1
.word 0xf9002234
.word 0xaa1303e0
.word 0xa9bf7ffe
bl _LEPUS_ThrowReferenceError
.word 0xa8c17ffe
.word 0xf85b83b1
.word 0xf9002234
.word 0x91000ed6
b __exception_handler_entry
Label_682:
.word 0xf9000100
.word 0xb9414269
cbz w9, Label_685
.word 0xf8008680
.word 0xf8008681
.word 0xb10012c8
.word 0xf85e83ac
.word 0xf9401989
.word 0xaa0903e2
.word 0xaa0803e1
.word 0xaa1303e0
.word 0xa9bf7ffe
bl _DebuggerCallEachOp
.word 0xa8c17ffe
.word 0xf85f8e81
.word 0xf85f8e80
Label_685:
.word 0x38403ec8
.word 0x91000108
.word 0xf8685aa9
.word 0xd61f0120
.global _dispatch_table_1_100
_dispatch_table_1_100:
.word 0xf8008680
.word 0xf85b83b1
.word 0xf9002234
.word 0x784012c8
.word 0x8b080f88
.word 0xf9400108
.word 0xf9401108
.word 0xf9400100
.word 0xd2800448
.word 0xeb08001f
b.NE Label_686
.word 0xd2800001
.word 0xf85b83b1
.word 0xf9002234
.word 0xaa1303e0
.word 0xa9bf7ffe
bl _JS_ThrowReferenceErrorUninitialized_GC
.word 0xa8c17ffe
.word 0xf85b83b1
.word 0xf9002234
.word 0x91000ed6
b __exception_handler_entry
Label_686:
.word 0xb9414269
cbz w9, Label_687
.word 0xf8008680
.word 0xf8008681
.word 0xb10012c8
.word 0xf85e83ac
.word 0xf9401989
.word 0xaa0903e2
.word 0xaa0803e1
.word 0xaa1303e0
.word 0xa9bf7ffe
bl _DebuggerCallEachOp
.word 0xa8c17ffe
.word 0xf85f8e81
.word 0xf85f8e80
Label_687:
.word 0x38403ec8
.word 0x9103c908
.word 0xf8685aa9
.word 0xd61f0120
.global _dispatch_table_2_100
_dispatch_table_2_100:
.word 0xa8810680
.word 0xf85b83b1
.word 0xf9002234
.global _dispatch_table_0_100
_dispatch_table_0_100:
.word 0x784012c8
.word 0x8b080f88
.word 0xf9400108
.word 0xf9401108
.word 0xf9400100
.word 0xd2800448
.word 0xeb08001f
b.NE Label_688
.word 0xd2800001
.word 0xf85b83b1
.word 0xf9002234
.word 0xaa1303e0
.word 0xa9bf7ffe
bl _JS_ThrowReferenceErrorUninitialized_GC
.word 0xa8c17ffe
.word 0xf85b83b1
.word 0xf9002234
.word 0x91000ed6
b __exception_handler_entry
Label_688:
.word 0xb9414269
cbz w9, Label_689
.word 0xf8008680
.word 0xf8008681
.word 0xb10012c8
.word 0xf85e83ac
.word 0xf9401989
.word 0xaa0903e2
.word 0xaa0803e1
.word 0xaa1303e0
.word 0xa9bf7ffe
bl _DebuggerCallEachOp
.word 0xa8c17ffe
.word 0xf85f8e81
.word 0xf85f8e80
Label_689:
.word 0x38403ec8
.word 0x9103c908
.word 0xf8685aa9
.word 0xd61f0120
.global _dispatch_table_2_101
_dispatch_table_2_101:
.word 0xf8008680
.word 0xaa0103e0
.word 0xf85b83b1
.word 0xf9002234
.word 0x784012c8
.word 0x8b080f88
.word 0xf9400108
.word 0xf9401108
.word 0xf9400109
.word 0xd280044a
.word 0xeb0a013f
b.NE Label_690
.word 0xf8008680
.word 0xd2800001
.word 0xf85b83b1
.word 0xf9002234
.word 0xaa1303e0
.word 0xa9bf7ffe
bl _JS_ThrowReferenceErrorUninitialized_GC
.word 0xa8c17ffe
.word 0xf85b83b1
.word 0xf9002234
.word 0x91000ed6
b __exception_handler_entry
Label_690:
.word 0xf9000100
.word 0xb9414269
cbz w9, Label_691
.word 0xf8008680
.word 0xf8008681
.word 0xb10012c8
.word 0xf85e83ac
.word 0xf9401989
.word 0xaa0903e2
.word 0xaa0803e1
.word 0xaa1303e0
.word 0xa9bf7ffe
bl _DebuggerCallEachOp
.word 0xa8c17ffe
.word 0xf85f8e81
.word 0xf85f8e80
Label_691:
.word 0x38403ec8
.word 0x91000108
.word 0xf8685aa9
.word 0xd61f0120
.global _dispatch_table_0_101
_dispatch_table_0_101:
.word 0xf85f8e80
.global _dispatch_table_1_101
_dispatch_table_1_101:
.word 0x784012c8
.word 0x8b080f88
.word 0xf9400108
.word 0xf9401108
.word 0xf9400109
.word 0xd280044a
.word 0xeb0a013f
b.NE Label_692
.word 0xf8008680
.word 0xd2800001
.word 0xf85b83b1
.word 0xf9002234
.word 0xaa1303e0
.word 0xa9bf7ffe
bl _JS_ThrowReferenceErrorUninitialized_GC
.word 0xa8c17ffe
.word 0xf85b83b1
.word 0xf9002234
.word 0x91000ed6
b __exception_handler_entry
Label_692:
.word 0xf9000100
.word 0xb9414269
cbz w9, Label_693
.word 0xf8008680
.word 0xf8008681
.word 0xb10012c8
.word 0xf85e83ac
.word 0xf9401989
.word 0xaa0903e2
.word 0xaa0803e1
.word 0xaa1303e0
.word 0xa9bf7ffe
bl _DebuggerCallEachOp
.word 0xa8c17ffe
.word 0xf85f8e81
.word 0xf85f8e80
Label_693:
.word 0x38403ec8
.word 0x91000108
.word 0xf8685aa9
.word 0xd61f0120
.global _dispatch_table_2_102
_dispatch_table_2_102:
.word 0xf8008680
.word 0xaa0103e0
.word 0xf85b83b1
.word 0xf9002234
.word 0x784012c8
.word 0x8b080f88
.word 0xf9400108
.word 0xf9401108
.word 0xf9400109
.word 0xd280044a
.word 0xeb0a013f
b.EQ Label_694
.word 0xf8008680
.word 0xd2800001
.word 0xf85b83b1
.word 0xf9002234
.word 0xaa1303e0
.word 0xa9bf7ffe
bl _JS_ThrowReferenceErrorUninitialized_GC
.word 0xa8c17ffe
.word 0xf85b83b1
.word 0xf9002234
.word 0x91000ed6
b __exception_handler_entry
Label_694:
.word 0xf9000100
.word 0xb9414269
cbz w9, Label_695
.word 0xf8008680
.word 0xf8008681
.word 0xb10012c8
.word 0xf85e83ac
.word 0xf9401989
.word 0xaa0903e2
.word 0xaa0803e1
.word 0xaa1303e0
.word 0xa9bf7ffe
bl _DebuggerCallEachOp
.word 0xa8c17ffe
.word 0xf85f8e81
.word 0xf85f8e80
Label_695:
.word 0x38403ec8
.word 0x91000108
.word 0xf8685aa9
.word 0xd61f0120
.global _dispatch_table_0_102
_dispatch_table_0_102:
.word 0xf85f8e80
.global _dispatch_table_1_102
_dispatch_table_1_102:
.word 0x784012c8
.word 0x8b080f88
.word 0xf9400108
.word 0xf9401108
.word 0xf9400109
.word 0xd280044a
.word 0xeb0a013f
b.EQ Label_696
.word 0xf8008680
.word 0xd2800001
.word 0xf85b83b1
.word 0xf9002234
.word 0xaa1303e0
.word 0xa9bf7ffe
bl _JS_ThrowReferenceErrorUninitialized_GC
.word 0xa8c17ffe
.word 0xf85b83b1
.word 0xf9002234
.word 0x91000ed6
b __exception_handler_entry
Label_696:
.word 0xf9000100
.word 0xb9414269
cbz w9, Label_697
.word 0xf8008680
.word 0xf8008681
.word 0xb10012c8
.word 0xf85e83ac
.word 0xf9401989
.word 0xaa0903e2
.word 0xaa0803e1
.word 0xaa1303e0
.word 0xa9bf7ffe
bl _DebuggerCallEachOp
.word 0xa8c17ffe
.word 0xf85f8e81
.word 0xf85f8e80
Label_697:
.word 0x38403ec8
.word 0x91000108
.word 0xf8685aa9
.word 0xd61f0120
.global _dispatch_table_1_103
_dispatch_table_1_103:
.word 0xf8008680
.word 0xf85b83b1
.word 0xf9002234
.word 0x784012c8
.word 0xf85b83b1
.word 0xd2800009
.word 0xaa0903e3
.word 0xaa0803e2
.word 0xaa1103e1
.word 0xaa1303e0
.word 0xa9bf7ffe
bl _close_lexical_var
.word 0xa8c17ffe
.word 0xb9414269
cbz w9, Label_698
.word 0xf8008680
.word 0xf8008681
.word 0xb10012c8
.word 0xf85e83ac
.word 0xf9401989
.word 0xaa0903e2
.word 0xaa0803e1
.word 0xaa1303e0
.word 0xa9bf7ffe
bl _DebuggerCallEachOp
.word 0xa8c17ffe
.word 0xf85f8e81
.word 0xf85f8e80
Label_698:
.word 0x38403ec8
.word 0x91000108
.word 0xf8685aa9
.word 0xd61f0120
.global _dispatch_table_2_103
_dispatch_table_2_103:
.word 0xa8810680
.word 0xf85b83b1
.word 0xf9002234
.global _dispatch_table_0_103
_dispatch_table_0_103:
.word 0x784012c8
.word 0xf85b83b1
.word 0xd2800009
.word 0xaa0903e3
.word 0xaa0803e2
.word 0xaa1103e1
.word 0xaa1303e0
.word 0xa9bf7ffe
bl _close_lexical_var
.word 0xa8c17ffe
.word 0xb9414269
cbz w9, Label_699
.word 0xf8008680
.word 0xf8008681
.word 0xb10012c8
.word 0xf85e83ac
.word 0xf9401989
.word 0xaa0903e2
.word 0xaa0803e1
.word 0xaa1303e0
.word 0xa9bf7ffe
bl _DebuggerCallEachOp
.word 0xa8c17ffe
.word 0xf85f8e81
.word 0xf85f8e80
Label_699:
.word 0x38403ec8
.word 0x91000108
.word 0xf8685aa9
.word 0xd61f0120
.global _dispatch_table_0_104
_dispatch_table_0_104:
.word 0xf85f8e84
.word 0xb2400be9
.word 0xeb090088
cbnz x8, Label_700
.word 0xb88012c3
.word 0x91000463
.word 0xb9414269
cbz w9, Label_705
.word 0xf8008680
.word 0xf8008681
.word 0xb1001ac8
.word 0xf85e83ac
.word 0xf9401989
.word 0xaa0903e2
.word 0xaa0803e1
.word 0xaa1303e0
.word 0xa9bf7ffe
bl _DebuggerCallEachOp
.word 0xa8c17ffe
.word 0xf85f8e81
.word 0xf85f8e80
Label_705:
.word 0x38405ec8
.word 0x91000108
.word 0xf8685aa9
.word 0xd61f0120
Label_700:
.word 0xb27f07e9
.word 0xeb090088
cbnz x8, Label_701
.word 0xb88012c3
.word 0x91000463
.word 0xab0302d6
.word 0xb9414269
cbz w9, Label_706
.word 0xf8008680
.word 0xf8008681
.word 0x910006c8
.word 0xf85e83ac
.word 0xf9401989
.word 0xaa0903e2
.word 0xaa0803e1
.word 0xaa1303e0
.word 0xa9bf7ffe
bl _DebuggerCallEachOp
.word 0xa8c17ffe
.word 0xf85f8e81
.word 0xf85f8e80
Label_706:
.word 0x394002c8
.word 0x91000108
.word 0xf8685aa9
.word 0xd61f0120
Label_701:
.word 0xf2503c88
.word 0xb24f3be9
.word 0xeb090108
cbnz x8, Label_702
.word 0x2a0403e8
.word 0xb88012c3
.word 0x91000463
cbnz x8, Label_707
.word 0xab0302d6
.word 0xb9414269
cbz w9, Label_709
.word 0xf8008680
.word 0xf8008681
.word 0x910006c8
.word 0xf85e83ac
.word 0xf9401989
.word 0xaa0903e2
.word 0xaa0803e1
.word 0xaa1303e0
.word 0xa9bf7ffe
bl _DebuggerCallEachOp
.word 0xa8c17ffe
.word 0xf85f8e81
.word 0xf85f8e80
Label_709:
.word 0x394002c8
.word 0x91000108
.word 0xf8685aa9
.word 0xd61f0120
Label_707:
.word 0xb9414269
cbz w9, Label_710
.word 0xf8008680
.word 0xf8008681
.word 0xb1001ac8
.word 0xf85e83ac
.word 0xf9401989
.word 0xaa0903e2
.word 0xaa0803e1
.word 0xaa1303e0
.word 0xa9bf7ffe
bl _DebuggerCallEachOp
.word 0xa8c17ffe
.word 0xf85f8e81
.word 0xf85f8e80
Label_710:
.word 0x38405ec8
.word 0x91000108
.word 0xf8685aa9
.word 0xd61f0120
Label_702:
.word 0xf1004888
cbnz x8, Label_703
.word 0xb88012c3
.word 0x91000463
.word 0xab0302d6
.word 0xb9414269
cbz w9, Label_711
.word 0xf8008680
.word 0xf8008681
.word 0x910006c8
.word 0xf85e83ac
.word 0xf9401989
.word 0xaa0903e2
.word 0xaa0803e1
.word 0xaa1303e0
.word 0xa9bf7ffe
bl _DebuggerCallEachOp
.word 0xa8c17ffe
.word 0xf85f8e81
.word 0xf85f8e80
Label_711:
.word 0x394002c8
.word 0x91000108
.word 0xf8685aa9
.word 0xd61f0120
Label_703:
.word 0xf1000888
cbnz x8, Label_704
.word 0xb88012c3
.word 0x91000463
.word 0xab0302d6
.word 0xb9414269
cbz w9, Label_712
.word 0xf8008680
.word 0xf8008681
.word 0x910006c8
.word 0xf85e83ac
.word 0xf9401989
.word 0xaa0903e2
.word 0xaa0803e1
.word 0xaa1303e0
.word 0xa9bf7ffe
bl _DebuggerCallEachOp
.word 0xa8c17ffe
.word 0xf85f8e81
.word 0xf85f8e80
Label_712:
.word 0x394002c8
.word 0x91000108
.word 0xf8685aa9
.word 0xd61f0120
Label_704:
.word 0xaa0403e1
.word 0xaa1303e0
.word 0xa9bf7ffe
bl _JS_ToBoolFree_GC
.word 0xa8c17ffe
.word 0xaa0003e8
.word 0xb88012c3
.word 0x91000463
cbnz x8, Label_713
.word 0xab0302d6
.word 0xb9414269
cbz w9, Label_715
.word 0xf8008680
.word 0xf8008681
.word 0x910006c8
.word 0xf85e83ac
.word 0xf9401989
.word 0xaa0903e2
.word 0xaa0803e1
.word 0xaa1303e0
.word 0xa9bf7ffe
bl _DebuggerCallEachOp
.word 0xa8c17ffe
.word 0xf85f8e81
.word 0xf85f8e80
Label_715:
.word 0x394002c8
.word 0x91000108
.word 0xf8685aa9
.word 0xd61f0120
Label_713:
.word 0xb9414269
cbz w9, Label_716
.word 0xf8008680
.word 0xf8008681
.word 0xb1001ac8
.word 0xf85e83ac
.word 0xf9401989
.word 0xaa0903e2
.word 0xaa0803e1
.word 0xaa1303e0
.word 0xa9bf7ffe
bl _DebuggerCallEachOp
.word 0xa8c17ffe
.word 0xf85f8e81
.word 0xf85f8e80
Label_716:
.word 0x38405ec8
.word 0x91000108
.word 0xf8685aa9
.word 0xd61f0120
.global _dispatch_table_1_104
_dispatch_table_1_104:
.word 0xaa0003e4
.word 0xb2400be9
.word 0xeb090088
cbnz x8, Label_717
.word 0xb88012c3
.word 0x91000463
.word 0xb9414269
cbz w9, Label_722
.word 0xf8008680
.word 0xf8008681
.word 0xb1001ac8
.word 0xf85e83ac
.word 0xf9401989
.word 0xaa0903e2
.word 0xaa0803e1
.word 0xaa1303e0
.word 0xa9bf7ffe
bl _DebuggerCallEachOp
.word 0xa8c17ffe
.word 0xf85f8e81
.word 0xf85f8e80
Label_722:
.word 0x38405ec8
.word 0x91000108
.word 0xf8685aa9
.word 0xd61f0120
Label_717:
.word 0xb27f07e9
.word 0xeb090088
cbnz x8, Label_718
.word 0xb88012c3
.word 0x91000463
.word 0xab0302d6
.word 0xb9414269
cbz w9, Label_723
.word 0xf8008680
.word 0xf8008681
.word 0x910006c8
.word 0xf85e83ac
.word 0xf9401989
.word 0xaa0903e2
.word 0xaa0803e1
.word 0xaa1303e0
.word 0xa9bf7ffe
bl _DebuggerCallEachOp
.word 0xa8c17ffe
.word 0xf85f8e81
.word 0xf85f8e80
Label_723:
.word 0x394002c8
.word 0x91000108
.word 0xf8685aa9
.word 0xd61f0120
Label_718:
.word 0xf2503c88
.word 0xb24f3be9
.word 0xeb090108
cbnz x8, Label_719
.word 0x2a0403e8
.word 0xb88012c3
.word 0x91000463
cbnz x8, Label_724
.word 0xab0302d6
.word 0xb9414269
cbz w9, Label_726
.word 0xf8008680
.word 0xf8008681
.word 0x910006c8
.word 0xf85e83ac
.word 0xf9401989
.word 0xaa0903e2
.word 0xaa0803e1
.word 0xaa1303e0
.word 0xa9bf7ffe
bl _DebuggerCallEachOp
.word 0xa8c17ffe
.word 0xf85f8e81
.word 0xf85f8e80
Label_726:
.word 0x394002c8
.word 0x91000108
.word 0xf8685aa9
.word 0xd61f0120
Label_724:
.word 0xb9414269
cbz w9, Label_727
.word 0xf8008680
.word 0xf8008681
.word 0xb1001ac8
.word 0xf85e83ac
.word 0xf9401989
.word 0xaa0903e2
.word 0xaa0803e1
.word 0xaa1303e0
.word 0xa9bf7ffe
bl _DebuggerCallEachOp
.word 0xa8c17ffe
.word 0xf85f8e81
.word 0xf85f8e80
Label_727:
.word 0x38405ec8
.word 0x91000108
.word 0xf8685aa9
.word 0xd61f0120
Label_719:
.word 0xf1004888
cbnz x8, Label_720
.word 0xb88012c3
.word 0x91000463
.word 0xab0302d6
.word 0xb9414269
cbz w9, Label_728
.word 0xf8008680
.word 0xf8008681
.word 0x910006c8
.word 0xf85e83ac
.word 0xf9401989
.word 0xaa0903e2
.word 0xaa0803e1
.word 0xaa1303e0
.word 0xa9bf7ffe
bl _DebuggerCallEachOp
.word 0xa8c17ffe
.word 0xf85f8e81
.word 0xf85f8e80
Label_728:
.word 0x394002c8
.word 0x91000108
.word 0xf8685aa9
.word 0xd61f0120
Label_720:
.word 0xf1000888
cbnz x8, Label_721
.word 0xb88012c3
.word 0x91000463
.word 0xab0302d6
.word 0xb9414269
cbz w9, Label_729
.word 0xf8008680
.word 0xf8008681
.word 0x910006c8
.word 0xf85e83ac
.word 0xf9401989
.word 0xaa0903e2
.word 0xaa0803e1
.word 0xaa1303e0
.word 0xa9bf7ffe
bl _DebuggerCallEachOp
.word 0xa8c17ffe
.word 0xf85f8e81
.word 0xf85f8e80
Label_729:
.word 0x394002c8
.word 0x91000108
.word 0xf8685aa9
.word 0xd61f0120
Label_721:
.word 0xaa0403e1
.word 0xaa1303e0
.word 0xa9bf7ffe
bl _JS_ToBoolFree_GC
.word 0xa8c17ffe
.word 0xaa0003e8
.word 0xb88012c3
.word 0x91000463
cbnz x8, Label_730
.word 0xab0302d6
.word 0xb9414269
cbz w9, Label_732
.word 0xf8008680
.word 0xf8008681
.word 0x910006c8
.word 0xf85e83ac
.word 0xf9401989
.word 0xaa0903e2
.word 0xaa0803e1
.word 0xaa1303e0
.word 0xa9bf7ffe
bl _DebuggerCallEachOp
.word 0xa8c17ffe
.word 0xf85f8e81
.word 0xf85f8e80
Label_732:
.word 0x394002c8
.word 0x91000108
.word 0xf8685aa9
.word 0xd61f0120
Label_730:
.word 0xb9414269
cbz w9, Label_733
.word 0xf8008680
.word 0xf8008681
.word 0xb1001ac8
.word 0xf85e83ac
.word 0xf9401989
.word 0xaa0903e2
.word 0xaa0803e1
.word 0xaa1303e0
.word 0xa9bf7ffe
bl _DebuggerCallEachOp
.word 0xa8c17ffe
.word 0xf85f8e81
.word 0xf85f8e80
Label_733:
.word 0x38405ec8
.word 0x91000108
.word 0xf8685aa9
.word 0xd61f0120
.global _dispatch_table_2_104
_dispatch_table_2_104:
.word 0xaa0103e4
.word 0xb2400be9
.word 0xeb090088
cbnz x8, Label_734
.word 0xb88012c3
.word 0x91000463
.word 0xb9414269
cbz w9, Label_739
.word 0xf8008680
.word 0xf8008681
.word 0xb1001ac8
.word 0xf85e83ac
.word 0xf9401989
.word 0xaa0903e2
.word 0xaa0803e1
.word 0xaa1303e0
.word 0xa9bf7ffe
bl _DebuggerCallEachOp
.word 0xa8c17ffe
.word 0xf85f8e81
.word 0xf85f8e80
Label_739:
.word 0x38405ec8
.word 0x9103c908
.word 0xf8685aa9
.word 0xd61f0120
Label_734:
.word 0xb27f07e9
.word 0xeb090088
cbnz x8, Label_735
.word 0xb88012c3
.word 0x91000463
.word 0xab0302d6
.word 0xb9414269
cbz w9, Label_740
.word 0xf8008680
.word 0xf8008681
.word 0x910006c8
.word 0xf85e83ac
.word 0xf9401989
.word 0xaa0903e2
.word 0xaa0803e1
.word 0xaa1303e0
.word 0xa9bf7ffe
bl _DebuggerCallEachOp
.word 0xa8c17ffe
.word 0xf85f8e81
.word 0xf85f8e80
Label_740:
.word 0x394002c8
.word 0x9103c908
.word 0xf8685aa9
.word 0xd61f0120
Label_735:
.word 0xf2503c88
.word 0xb24f3be9
.word 0xeb090108
cbnz x8, Label_736
.word 0x2a0403e8
.word 0xb88012c3
.word 0x91000463
cbnz x8, Label_741
.word 0xab0302d6
.word 0xb9414269
cbz w9, Label_743
.word 0xf8008680
.word 0xf8008681
.word 0x910006c8
.word 0xf85e83ac
.word 0xf9401989
.word 0xaa0903e2
.word 0xaa0803e1
.word 0xaa1303e0
.word 0xa9bf7ffe
bl _DebuggerCallEachOp
.word 0xa8c17ffe
.word 0xf85f8e81
.word 0xf85f8e80
Label_743:
.word 0x394002c8
.word 0x9103c908
.word 0xf8685aa9
.word 0xd61f0120
Label_741:
.word 0xb9414269
cbz w9, Label_744
.word 0xf8008680
.word 0xf8008681
.word 0xb1001ac8
.word 0xf85e83ac
.word 0xf9401989
.word 0xaa0903e2
.word 0xaa0803e1
.word 0xaa1303e0
.word 0xa9bf7ffe
bl _DebuggerCallEachOp
.word 0xa8c17ffe
.word 0xf85f8e81
.word 0xf85f8e80
Label_744:
.word 0x38405ec8
.word 0x9103c908
.word 0xf8685aa9
.word 0xd61f0120
Label_736:
.word 0xf1004888
cbnz x8, Label_737
.word 0xb88012c3
.word 0x91000463
.word 0xab0302d6
.word 0xb9414269
cbz w9, Label_745
.word 0xf8008680
.word 0xf8008681
.word 0x910006c8
.word 0xf85e83ac
.word 0xf9401989
.word 0xaa0903e2
.word 0xaa0803e1
.word 0xaa1303e0
.word 0xa9bf7ffe
bl _DebuggerCallEachOp
.word 0xa8c17ffe
.word 0xf85f8e81
.word 0xf85f8e80
Label_745:
.word 0x394002c8
.word 0x9103c908
.word 0xf8685aa9
.word 0xd61f0120
Label_737:
.word 0xf1000888
cbnz x8, Label_738
.word 0xb88012c3
.word 0x91000463
.word 0xab0302d6
.word 0xb9414269
cbz w9, Label_746
.word 0xf8008680
.word 0xf8008681
.word 0x910006c8
.word 0xf85e83ac
.word 0xf9401989
.word 0xaa0903e2
.word 0xaa0803e1
.word 0xaa1303e0
.word 0xa9bf7ffe
bl _DebuggerCallEachOp
.word 0xa8c17ffe
.word 0xf85f8e81
.word 0xf85f8e80
Label_746:
.word 0x394002c8
.word 0x9103c908
.word 0xf8685aa9
.word 0xd61f0120
Label_738:
.word 0xaa0003f9
.word 0xaa0403e1
.word 0xaa1303e0
.word 0xa9bf7ffe
bl _JS_ToBoolFree_GC
.word 0xa8c17ffe
.word 0xaa0003e8
.word 0xaa1903e0
.word 0xb88012c3
.word 0x91000463
cbnz x8, Label_747
.word 0xab0302d6
.word 0xb9414269
cbz w9, Label_749
.word 0xf8008680
.word 0xf8008681
.word 0x910006c8
.word 0xf85e83ac
.word 0xf9401989
.word 0xaa0903e2
.word 0xaa0803e1
.word 0xaa1303e0
.word 0xa9bf7ffe
bl _DebuggerCallEachOp
.word 0xa8c17ffe
.word 0xf85f8e81
.word 0xf85f8e80
Label_749:
.word 0x394002c8
.word 0x9103c908
.word 0xf8685aa9
.word 0xd61f0120
Label_747:
.word 0xb9414269
cbz w9, Label_750
.word 0xf8008680
.word 0xf8008681
.word 0xb1001ac8
.word 0xf85e83ac
.word 0xf9401989
.word 0xaa0903e2
.word 0xaa0803e1
.word 0xaa1303e0
.word 0xa9bf7ffe
bl _DebuggerCallEachOp
.word 0xa8c17ffe
.word 0xf85f8e81
.word 0xf85f8e80
Label_750:
.word 0x38405ec8
.word 0x9103c908
.word 0xf8685aa9
.word 0xd61f0120
.global _dispatch_table_0_105
_dispatch_table_0_105:
.word 0xf85f8e84
.word 0xb2400be9
.word 0xeb090088
cbnz x8, Label_751
.word 0xb88012c3
.word 0x91000463
.word 0xab0302d6
.word 0xb9414269
cbz w9, Label_756
.word 0xf8008680
.word 0xf8008681
.word 0x910006c8
.word 0xf85e83ac
.word 0xf9401989
.word 0xaa0903e2
.word 0xaa0803e1
.word 0xaa1303e0
.word 0xa9bf7ffe
bl _DebuggerCallEachOp
.word 0xa8c17ffe
.word 0xf85f8e81
.word 0xf85f8e80
Label_756:
.word 0x394002c8
.word 0x91000108
.word 0xf8685aa9
.word 0xd61f0120
Label_751:
.word 0xb27f07e9
.word 0xeb090088
cbnz x8, Label_752
.word 0xb88012c3
.word 0x91000463
.word 0xb9414269
cbz w9, Label_757
.word 0xf8008680
.word 0xf8008681
.word 0xb1001ac8
.word 0xf85e83ac
.word 0xf9401989
.word 0xaa0903e2
.word 0xaa0803e1
.word 0xaa1303e0
.word 0xa9bf7ffe
bl _DebuggerCallEachOp
.word 0xa8c17ffe
.word 0xf85f8e81
.word 0xf85f8e80
Label_757:
.word 0x38405ec8
.word 0x91000108
.word 0xf8685aa9
.word 0xd61f0120
Label_752:
.word 0xf2503c88
.word 0xb24f3be9
.word 0xeb090108
cbnz x8, Label_753
.word 0x2a0403e8
.word 0xb88012c3
.word 0x91000463
cbz x8, Label_758
.word 0xab0302d6
.word 0xb9414269
cbz w9, Label_759
.word 0xf8008680
.word 0xf8008681
.word 0x910006c8
.word 0xf85e83ac
.word 0xf9401989
.word 0xaa0903e2
.word 0xaa0803e1
.word 0xaa1303e0
.word 0xa9bf7ffe
bl _DebuggerCallEachOp
.word 0xa8c17ffe
.word 0xf85f8e81
.word 0xf85f8e80
Label_759:
.word 0x394002c8
.word 0x91000108
.word 0xf8685aa9
.word 0xd61f0120
Label_758:
.word 0xb9414269
cbz w9, Label_760
.word 0xf8008680
.word 0xf8008681
.word 0xb1001ac8
.word 0xf85e83ac
.word 0xf9401989
.word 0xaa0903e2
.word 0xaa0803e1
.word 0xaa1303e0
.word 0xa9bf7ffe
bl _DebuggerCallEachOp
.word 0xa8c17ffe
.word 0xf85f8e81
.word 0xf85f8e80
Label_760:
.word 0x38405ec8
.word 0x91000108
.word 0xf8685aa9
.word 0xd61f0120
Label_753:
.word 0xf1004888
cbnz x8, Label_754
.word 0xb88012c3
.word 0x91000463
.word 0xb9414269
cbz w9, Label_761
.word 0xf8008680
.word 0xf8008681
.word 0xb1001ac8
.word 0xf85e83ac
.word 0xf9401989
.word 0xaa0903e2
.word 0xaa0803e1
.word 0xaa1303e0
.word 0xa9bf7ffe
bl _DebuggerCallEachOp
.word 0xa8c17ffe
.word 0xf85f8e81
.word 0xf85f8e80
Label_761:
.word 0x38405ec8
.word 0x91000108
.word 0xf8685aa9
.word 0xd61f0120
Label_754:
.word 0xf1000888
cbnz x8, Label_755
.word 0xb88012c3
.word 0x91000463
.word 0xb9414269
cbz w9, Label_762
.word 0xf8008680
.word 0xf8008681
.word 0xb1001ac8
.word 0xf85e83ac
.word 0xf9401989
.word 0xaa0903e2
.word 0xaa0803e1
.word 0xaa1303e0
.word 0xa9bf7ffe
bl _DebuggerCallEachOp
.word 0xa8c17ffe
.word 0xf85f8e81
.word 0xf85f8e80
Label_762:
.word 0x38405ec8
.word 0x91000108
.word 0xf8685aa9
.word 0xd61f0120
Label_755:
.word 0xaa0403e1
.word 0xaa1303e0
.word 0xa9bf7ffe
bl _JS_ToBoolFree_GC
.word 0xa8c17ffe
.word 0xaa0003e8
.word 0xb88012c3
.word 0x91000463
cbz x8, Label_763
.word 0xab0302d6
.word 0xb9414269
cbz w9, Label_764
.word 0xf8008680
.word 0xf8008681
.word 0x910006c8
.word 0xf85e83ac
.word 0xf9401989
.word 0xaa0903e2
.word 0xaa0803e1
.word 0xaa1303e0
.word 0xa9bf7ffe
bl _DebuggerCallEachOp
.word 0xa8c17ffe
.word 0xf85f8e81
.word 0xf85f8e80
Label_764:
.word 0x394002c8
.word 0x91000108
.word 0xf8685aa9
.word 0xd61f0120
Label_763:
.word 0xb9414269
cbz w9, Label_765
.word 0xf8008680
.word 0xf8008681
.word 0xb1001ac8
.word 0xf85e83ac
.word 0xf9401989
.word 0xaa0903e2
.word 0xaa0803e1
.word 0xaa1303e0
.word 0xa9bf7ffe
bl _DebuggerCallEachOp
.word 0xa8c17ffe
.word 0xf85f8e81
.word 0xf85f8e80
Label_765:
.word 0x38405ec8
.word 0x91000108
.word 0xf8685aa9
.word 0xd61f0120
.global _dispatch_table_1_105
_dispatch_table_1_105:
.word 0xaa0003e4
.word 0xb2400be9
.word 0xeb090088
cbnz x8, Label_766
.word 0xb88012c3
.word 0x91000463
.word 0xab0302d6
.word 0xb9414269
cbz w9, Label_771
.word 0xf8008680
.word 0xf8008681
.word 0x910006c8
.word 0xf85e83ac
.word 0xf9401989
.word 0xaa0903e2
.word 0xaa0803e1
.word 0xaa1303e0
.word 0xa9bf7ffe
bl _DebuggerCallEachOp
.word 0xa8c17ffe
.word 0xf85f8e81
.word 0xf85f8e80
Label_771:
.word 0x394002c8
.word 0x91000108
.word 0xf8685aa9
.word 0xd61f0120
Label_766:
.word 0xb27f07e9
.word 0xeb090088
cbnz x8, Label_767
.word 0xb88012c3
.word 0x91000463
.word 0xb9414269
cbz w9, Label_772
.word 0xf8008680
.word 0xf8008681
.word 0xb1001ac8
.word 0xf85e83ac
.word 0xf9401989
.word 0xaa0903e2
.word 0xaa0803e1
.word 0xaa1303e0
.word 0xa9bf7ffe
bl _DebuggerCallEachOp
.word 0xa8c17ffe
.word 0xf85f8e81
.word 0xf85f8e80
Label_772:
.word 0x38405ec8
.word 0x91000108
.word 0xf8685aa9
.word 0xd61f0120
Label_767:
.word 0xf2503c88
.word 0xb24f3be9
.word 0xeb090108
cbnz x8, Label_768
.word 0x2a0403e8
.word 0xb88012c3
.word 0x91000463
cbz x8, Label_773
.word 0xab0302d6
.word 0xb9414269
cbz w9, Label_774
.word 0xf8008680
.word 0xf8008681
.word 0x910006c8
.word 0xf85e83ac
.word 0xf9401989
.word 0xaa0903e2
.word 0xaa0803e1
.word 0xaa1303e0
.word 0xa9bf7ffe
bl _DebuggerCallEachOp
.word 0xa8c17ffe
.word 0xf85f8e81
.word 0xf85f8e80
Label_774:
.word 0x394002c8
.word 0x91000108
.word 0xf8685aa9
.word 0xd61f0120
Label_773:
.word 0xb9414269
cbz w9, Label_775
.word 0xf8008680
.word 0xf8008681
.word 0xb1001ac8
.word 0xf85e83ac
.word 0xf9401989
.word 0xaa0903e2
.word 0xaa0803e1
.word 0xaa1303e0
.word 0xa9bf7ffe
bl _DebuggerCallEachOp
.word 0xa8c17ffe
.word 0xf85f8e81
.word 0xf85f8e80
Label_775:
.word 0x38405ec8
.word 0x91000108
.word 0xf8685aa9
.word 0xd61f0120
Label_768:
.word 0xf1004888
cbnz x8, Label_769
.word 0xb88012c3
.word 0x91000463
.word 0xb9414269
cbz w9, Label_776
.word 0xf8008680
.word 0xf8008681
.word 0xb1001ac8
.word 0xf85e83ac
.word 0xf9401989
.word 0xaa0903e2
.word 0xaa0803e1
.word 0xaa1303e0
.word 0xa9bf7ffe
bl _DebuggerCallEachOp
.word 0xa8c17ffe
.word 0xf85f8e81
.word 0xf85f8e80
Label_776:
.word 0x38405ec8
.word 0x91000108
.word 0xf8685aa9
.word 0xd61f0120
Label_769:
.word 0xf1000888
cbnz x8, Label_770
.word 0xb88012c3
.word 0x91000463
.word 0xb9414269
cbz w9, Label_777
.word 0xf8008680
.word 0xf8008681
.word 0xb1001ac8
.word 0xf85e83ac
.word 0xf9401989
.word 0xaa0903e2
.word 0xaa0803e1
.word 0xaa1303e0
.word 0xa9bf7ffe
bl _DebuggerCallEachOp
.word 0xa8c17ffe
.word 0xf85f8e81
.word 0xf85f8e80
Label_777:
.word 0x38405ec8
.word 0x91000108
.word 0xf8685aa9
.word 0xd61f0120
Label_770:
.word 0xaa0403e1
.word 0xaa1303e0
.word 0xa9bf7ffe
bl _JS_ToBoolFree_GC
.word 0xa8c17ffe
.word 0xaa0003e8
.word 0xb88012c3
.word 0x91000463
cbz x8, Label_778
.word 0xab0302d6
.word 0xb9414269
cbz w9, Label_779
.word 0xf8008680
.word 0xf8008681
.word 0x910006c8
.word 0xf85e83ac
.word 0xf9401989
.word 0xaa0903e2
.word 0xaa0803e1
.word 0xaa1303e0
.word 0xa9bf7ffe
bl _DebuggerCallEachOp
.word 0xa8c17ffe
.word 0xf85f8e81
.word 0xf85f8e80
Label_779:
.word 0x394002c8
.word 0x91000108
.word 0xf8685aa9
.word 0xd61f0120
Label_778:
.word 0xb9414269
cbz w9, Label_780
.word 0xf8008680
.word 0xf8008681
.word 0xb1001ac8
.word 0xf85e83ac
.word 0xf9401989
.word 0xaa0903e2
.word 0xaa0803e1
.word 0xaa1303e0
.word 0xa9bf7ffe
bl _DebuggerCallEachOp
.word 0xa8c17ffe
.word 0xf85f8e81
.word 0xf85f8e80
Label_780:
.word 0x38405ec8
.word 0x91000108
.word 0xf8685aa9
.word 0xd61f0120
.global _dispatch_table_2_105
_dispatch_table_2_105:
.word 0xaa0103e4
.word 0xb2400be9
.word 0xeb090088
cbnz x8, Label_781
.word 0xb88012c3
.word 0x91000463
.word 0xab0302d6
.word 0xb9414269
cbz w9, Label_786
.word 0xf8008680
.word 0xf8008681
.word 0x910006c8
.word 0xf85e83ac
.word 0xf9401989
.word 0xaa0903e2
.word 0xaa0803e1
.word 0xaa1303e0
.word 0xa9bf7ffe
bl _DebuggerCallEachOp
.word 0xa8c17ffe
.word 0xf85f8e81
.word 0xf85f8e80
Label_786:
.word 0x394002c8
.word 0x9103c908
.word 0xf8685aa9
.word 0xd61f0120
Label_781:
.word 0xb27f07e9
.word 0xeb090088
cbnz x8, Label_782
.word 0xb88012c3
.word 0x91000463
.word 0xb9414269
cbz w9, Label_787
.word 0xf8008680
.word 0xf8008681
.word 0xb1001ac8
.word 0xf85e83ac
.word 0xf9401989
.word 0xaa0903e2
.word 0xaa0803e1
.word 0xaa1303e0
.word 0xa9bf7ffe
bl _DebuggerCallEachOp
.word 0xa8c17ffe
.word 0xf85f8e81
.word 0xf85f8e80
Label_787:
.word 0x38405ec8
.word 0x9103c908
.word 0xf8685aa9
.word 0xd61f0120
Label_782:
.word 0xf2503c88
.word 0xb24f3be9
.word 0xeb090108
cbnz x8, Label_783
.word 0x2a0403e8
.word 0xb88012c3
.word 0x91000463
cbz x8, Label_788
.word 0xab0302d6
.word 0xb9414269
cbz w9, Label_789
.word 0xf8008680
.word 0xf8008681
.word 0x910006c8
.word 0xf85e83ac
.word 0xf9401989
.word 0xaa0903e2
.word 0xaa0803e1
.word 0xaa1303e0
.word 0xa9bf7ffe
bl _DebuggerCallEachOp
.word 0xa8c17ffe
.word 0xf85f8e81
.word 0xf85f8e80
Label_789:
.word 0x394002c8
.word 0x9103c908
.word 0xf8685aa9
.word 0xd61f0120
Label_788:
.word 0xb9414269
cbz w9, Label_790
.word 0xf8008680
.word 0xf8008681
.word 0xb1001ac8
.word 0xf85e83ac
.word 0xf9401989
.word 0xaa0903e2
.word 0xaa0803e1
.word 0xaa1303e0
.word 0xa9bf7ffe
bl _DebuggerCallEachOp
.word 0xa8c17ffe
.word 0xf85f8e81
.word 0xf85f8e80
Label_790:
.word 0x38405ec8
.word 0x9103c908
.word 0xf8685aa9
.word 0xd61f0120
Label_783:
.word 0xf1004888
cbnz x8, Label_784
.word 0xb88012c3
.word 0x91000463
.word 0xb9414269
cbz w9, Label_791
.word 0xf8008680
.word 0xf8008681
.word 0xb1001ac8
.word 0xf85e83ac
.word 0xf9401989
.word 0xaa0903e2
.word 0xaa0803e1
.word 0xaa1303e0
.word 0xa9bf7ffe
bl _DebuggerCallEachOp
.word 0xa8c17ffe
.word 0xf85f8e81
.word 0xf85f8e80
Label_791:
.word 0x38405ec8
.word 0x9103c908
.word 0xf8685aa9
.word 0xd61f0120
Label_784:
.word 0xf1000888
cbnz x8, Label_785
.word 0xb88012c3
.word 0x91000463
.word 0xb9414269
cbz w9, Label_792
.word 0xf8008680
.word 0xf8008681
.word 0xb1001ac8
.word 0xf85e83ac
.word 0xf9401989
.word 0xaa0903e2
.word 0xaa0803e1
.word 0xaa1303e0
.word 0xa9bf7ffe
bl _DebuggerCallEachOp
.word 0xa8c17ffe
.word 0xf85f8e81
.word 0xf85f8e80
Label_792:
.word 0x38405ec8
.word 0x9103c908
.word 0xf8685aa9
.word 0xd61f0120
Label_785:
.word 0xaa0003f9
.word 0xaa0403e1
.word 0xaa1303e0
.word 0xa9bf7ffe
bl _JS_ToBoolFree_GC
.word 0xa8c17ffe
.word 0xaa0003e8
.word 0xaa1903e0
.word 0xb88012c3
.word 0x91000463
cbz x8, Label_793
.word 0xab0302d6
.word 0xb9414269
cbz w9, Label_794
.word 0xf8008680
.word 0xf8008681
.word 0x910006c8
.word 0xf85e83ac
.word 0xf9401989
.word 0xaa0903e2
.word 0xaa0803e1
.word 0xaa1303e0
.word 0xa9bf7ffe
bl _DebuggerCallEachOp
.word 0xa8c17ffe
.word 0xf85f8e81
.word 0xf85f8e80
Label_794:
.word 0x394002c8
.word 0x9103c908
.word 0xf8685aa9
.word 0xd61f0120
Label_793:
.word 0xb9414269
cbz w9, Label_795
.word 0xf8008680
.word 0xf8008681
.word 0xb1001ac8
.word 0xf85e83ac
.word 0xf9401989
.word 0xaa0903e2
.word 0xaa0803e1
.word 0xaa1303e0
.word 0xa9bf7ffe
bl _DebuggerCallEachOp
.word 0xa8c17ffe
.word 0xf85f8e81
.word 0xf85f8e80
Label_795:
.word 0x38405ec8
.word 0x9103c908
.word 0xf8685aa9
.word 0xd61f0120
.global _dispatch_table_0_106
_dispatch_table_0_106:
.word 0xb88012c8
.word 0x91000508
.word 0xab0802d6
.word 0xb9414269
cbz w9, Label_796
.word 0xf8008680
.word 0xf8008681
.word 0x910006c8
.word 0xf85e83ac
.word 0xf9401989
.word 0xaa0903e2
.word 0xaa0803e1
.word 0xaa1303e0
.word 0xa9bf7ffe
bl _DebuggerCallEachOp
.word 0xa8c17ffe
.word 0xf85f8e81
.word 0xf85f8e80
Label_796:
.word 0x394002c8
.word 0x91000108
.word 0xf8685aa9
.word 0xd61f0120
.global _dispatch_table_1_106
_dispatch_table_1_106:
.word 0xb88012c8
.word 0x91000508
.word 0xab0802d6
.word 0xb9414269
cbz w9, Label_797
.word 0xf8008680
.word 0xf8008681
.word 0x910006c8
.word 0xf85e83ac
.word 0xf9401989
.word 0xaa0903e2
.word 0xaa0803e1
.word 0xaa1303e0
.word 0xa9bf7ffe
bl _DebuggerCallEachOp
.word 0xa8c17ffe
.word 0xf85f8e81
.word 0xf85f8e80
Label_797:
.word 0x394002c8
.word 0x9103c908
.word 0xf8685aa9
.word 0xd61f0120
.global _dispatch_table_2_106
_dispatch_table_2_106:
.word 0xb88012c8
.word 0x91000508
.word 0xab0802d6
.word 0xb9414269
cbz w9, Label_798
.word 0xf8008680
.word 0xf8008681
.word 0x910006c8
.word 0xf85e83ac
.word 0xf9401989
.word 0xaa0903e2
.word 0xaa0803e1
.word 0xaa1303e0
.word 0xa9bf7ffe
bl _DebuggerCallEachOp
.word 0xa8c17ffe
.word 0xf85f8e81
.word 0xf85f8e80
Label_798:
.word 0x394002c8
.word 0x91079108
.word 0xf8685aa9
.word 0xd61f0120
.global _dispatch_table_0_107
_dispatch_table_0_107:
.word 0xb88012c8
.word 0x910006c0
.word 0x8b080000
.word 0xf85e83ac
.word 0xf9401983
.word 0xf9400463
.word 0xcb030000
.word 0xd370bc00
.word 0xd2800848
.word 0xaa080000
.word 0xb9414269
cbz w9, Label_799
.word 0xf8008680
.word 0xf8008681
.word 0xb1001ac8
.word 0xf85e83ac
.word 0xf9401989
.word 0xaa0903e2
.word 0xaa0803e1
.word 0xaa1303e0
.word 0xa9bf7ffe
bl _DebuggerCallEachOp
.word 0xa8c17ffe
.word 0xf85f8e81
.word 0xf85f8e80
Label_799:
.word 0x38405ec8
.word 0x9103c908
.word 0xf8685aa9
.word 0xd61f0120
.global _dispatch_table_1_107
_dispatch_table_1_107:
.word 0xb88012c8
.word 0x910006c1
.word 0x8b080021
.word 0xf85e83ac
.word 0xf9401983
.word 0xf9400463
.word 0xcb030021
.word 0xd370bc21
.word 0xd2800848
.word 0xaa080021
.word 0xb9414269
cbz w9, Label_800
.word 0xf8008680
.word 0xf8008681
.word 0xb1001ac8
.word 0xf85e83ac
.word 0xf9401989
.word 0xaa0903e2
.word 0xaa0803e1
.word 0xaa1303e0
.word 0xa9bf7ffe
bl _DebuggerCallEachOp
.word 0xa8c17ffe
.word 0xf85f8e81
.word 0xf85f8e80
Label_800:
.word 0x38405ec8
.word 0x91079108
.word 0xf8685aa9
.word 0xd61f0120
.global _dispatch_table_2_107
_dispatch_table_2_107:
.word 0xf8008680
.word 0xaa0103e0
.word 0xb88012c8
.word 0x910006c1
.word 0x8b080021
.word 0xf85e83ac
.word 0xf9401983
.word 0xf9400463
.word 0xcb030021
.word 0xd370bc21
.word 0xd2800848
.word 0xaa080021
.word 0xb9414269
cbz w9, Label_801
.word 0xf8008680
.word 0xf8008681
.word 0xb1001ac8
.word 0xf85e83ac
.word 0xf9401989
.word 0xaa0903e2
.word 0xaa0803e1
.word 0xaa1303e0
.word 0xa9bf7ffe
bl _DebuggerCallEachOp
.word 0xa8c17ffe
.word 0xf85f8e81
.word 0xf85f8e80
Label_801:
.word 0x38405ec8
.word 0x91079108
.word 0xf8685aa9
.word 0xd61f0120
.global _dispatch_table_0_108
_dispatch_table_0_108:
.word 0xb84012c8
.word 0xf85e83ac
.word 0xf9401989
.word 0xf9400529
.word 0x910016d9
.word 0xcb090339
.word 0xb24f3b39
.word 0xaa1903e0
.word 0x91000508
.word 0xab0802d6
.word 0xb9414269
cbz w9, Label_802
.word 0xf8008680
.word 0xf8008681
.word 0x910006c8
.word 0xf85e83ac
.word 0xf9401989
.word 0xaa0903e2
.word 0xaa0803e1
.word 0xaa1303e0
.word 0xa9bf7ffe
bl _DebuggerCallEachOp
.word 0xa8c17ffe
.word 0xf85f8e81
.word 0xf85f8e80
Label_802:
.word 0x394002c8
.word 0x9103c908
.word 0xf8685aa9
.word 0xd61f0120
.global _dispatch_table_1_108
_dispatch_table_1_108:
.word 0xb84012c8
.word 0xf85e83ac
.word 0xf9401989
.word 0xf9400529
.word 0x910016d9
.word 0xcb090339
.word 0xb24f3b39
.word 0xaa1903e1
.word 0x91000508
.word 0xab0802d6
.word 0xb9414269
cbz w9, Label_803
.word 0xf8008680
.word 0xf8008681
.word 0x910006c8
.word 0xf85e83ac
.word 0xf9401989
.word 0xaa0903e2
.word 0xaa0803e1
.word 0xaa1303e0
.word 0xa9bf7ffe
bl _DebuggerCallEachOp
.word 0xa8c17ffe
.word 0xf85f8e81
.word 0xf85f8e80
Label_803:
.word 0x394002c8
.word 0x91079108
.word 0xf8685aa9
.word 0xd61f0120
.global _dispatch_table_2_108
_dispatch_table_2_108:
.word 0xb84012c8
.word 0xf85e83ac
.word 0xf9401989
.word 0xf9400529
.word 0x910016d9
.word 0xcb090339
.word 0xb24f3b39
.word 0xf8008680
.word 0xaa0103e0
.word 0xaa1903e1
.word 0x91000508
.word 0xab0802d6
.word 0xb9414269
cbz w9, Label_804
.word 0xf8008680
.word 0xf8008681
.word 0x910006c8
.word 0xf85e83ac
.word 0xf9401989
.word 0xaa0903e2
.word 0xaa0803e1
.word 0xaa1303e0
.word 0xa9bf7ffe
bl _DebuggerCallEachOp
.word 0xa8c17ffe
.word 0xf85f8e81
.word 0xf85f8e80
Label_804:
.word 0x394002c8
.word 0x91079108
.word 0xf8685aa9
.word 0xd61f0120
.global _dispatch_table_0_109
_dispatch_table_0_109:
.word 0xf85f8e99
.word 0xf2503f28
.word 0xb24f3be9
.word 0xeb090108
cbnz x8, Label_805
.word 0x2a1903f9
.word 0xf85e83ac
.word 0xf9401989
.word 0xb9401128
.word 0x6b08033f
b.GE Label_805
.word 0xf9400529
.word 0x8b190129
.word 0xcb160129
.word 0xab0902d6
.word 0xb9414269
cbz w9, Label_806
.word 0xf8008680
.word 0xf8008681
.word 0x910006c8
.word 0xf85e83ac
.word 0xf9401989
.word 0xaa0903e2
.word 0xaa0803e1
.word 0xaa1303e0
.word 0xa9bf7ffe
bl _DebuggerCallEachOp
.word 0xa8c17ffe
.word 0xf85f8e81
.word 0xf85f8e80
Label_806:
.word 0x394002c8
.word 0x91000108
.word 0xf8685aa9
.word 0xd61f0120
Label_805:
.word 0x910006d6
adr x1, Label_807
b Label_808
Label_807:
.asciz "invalid ret value"
.align 3
Label_808:
.word 0xaa1303e0
.word 0xa9bf7ffe
bl _LEPUS_ThrowInternalError
.word 0xa8c17ffe
b __exception_handler_entry
.global _dispatch_table_1_109
_dispatch_table_1_109:
.word 0xaa0003f9
.word 0xf2503f28
.word 0xb24f3be9
.word 0xeb090108
cbnz x8, Label_809
.word 0x2a1903f9
.word 0xf85e83ac
.word 0xf9401989
.word 0xb9401128
.word 0x6b08033f
b.GE Label_809
.word 0xf9400529
.word 0x8b190129
.word 0xcb160129
.word 0xab0902d6
.word 0xb9414269
cbz w9, Label_810
.word 0xf8008680
.word 0xf8008681
.word 0x910006c8
.word 0xf85e83ac
.word 0xf9401989
.word 0xaa0903e2
.word 0xaa0803e1
.word 0xaa1303e0
.word 0xa9bf7ffe
bl _DebuggerCallEachOp
.word 0xa8c17ffe
.word 0xf85f8e81
.word 0xf85f8e80
Label_810:
.word 0x394002c8
.word 0x91000108
.word 0xf8685aa9
.word 0xd61f0120
Label_809:
.word 0xf8008680
.word 0x910006d6
adr x1, Label_811
b Label_812
Label_811:
.asciz "invalid ret value"
.align 3
Label_812:
.word 0xaa1303e0
.word 0xa9bf7ffe
bl _LEPUS_ThrowInternalError
.word 0xa8c17ffe
b __exception_handler_entry
.global _dispatch_table_2_109
_dispatch_table_2_109:
.word 0xaa0103f9
.word 0xf2503f28
.word 0xb24f3be9
.word 0xeb090108
cbnz x8, Label_813
.word 0x2a1903f9
.word 0xf85e83ac
.word 0xf9401989
.word 0xb9401128
.word 0x6b08033f
b.GE Label_813
.word 0xf9400529
.word 0x8b190129
.word 0xcb160129
.word 0xab0902d6
.word 0xb9414269
cbz w9, Label_814
.word 0xf8008680
.word 0xf8008681
.word 0x910006c8
.word 0xf85e83ac
.word 0xf9401989
.word 0xaa0903e2
.word 0xaa0803e1
.word 0xaa1303e0
.word 0xa9bf7ffe
bl _DebuggerCallEachOp
.word 0xa8c17ffe
.word 0xf85f8e81
.word 0xf85f8e80
Label_814:
.word 0x394002c8
.word 0x9103c908
.word 0xf8685aa9
.word 0xd61f0120
Label_813:
.word 0xf8008680
.word 0xf8008681
.word 0x910006d6
adr x1, Label_815
b Label_816
Label_815:
.asciz "invalid ret value"
.align 3
Label_816:
.word 0xaa1303e0
.word 0xa9bf7ffe
bl _LEPUS_ThrowInternalError
.word 0xa8c17ffe
b __exception_handler_entry
.global _dispatch_table_0_110
_dispatch_table_0_110:
.word 0xf85f8e99
.word 0xaa1903e0
.word 0xd2800048
.word 0xf2ffffc8
.word 0xea19011f
b.EQ Label_817
.word 0xf8008699
.word 0xf85b83b1
.word 0xf9002234
.word 0xaa1903e1
.word 0xaa1303e0
.word 0xa9bf7ffe
bl _JS_ToObject_GC
.word 0xa8c17ffe
.word 0xd1002294
.word 0xf102081f
b.NE Label_819
.word 0xf8008699
.word 0x910006d6
.word 0xf85b83b1
.word 0xf9002234
b __exception_handler_entry
Label_819:
Label_817:
.word 0xb9414269
cbz w9, Label_820
.word 0xf8008680
.word 0xf8008681
.word 0xb1000ac8
.word 0xf85e83ac
.word 0xf9401989
.word 0xaa0903e2
.word 0xaa0803e1
.word 0xaa1303e0
.word 0xa9bf7ffe
bl _DebuggerCallEachOp
.word 0xa8c17ffe
.word 0xf85f8e81
.word 0xf85f8e80
Label_820:
.word 0x38401ec8
.word 0x9103c908
.word 0xf8685aa9
.word 0xd61f0120
.global _dispatch_table_1_110
_dispatch_table_1_110:
.word 0xd2800048
.word 0xf2ffffc8
.word 0xea00011f
b.EQ Label_821
.word 0xaa0003f9
.word 0xf8008699
.word 0xf85b83b1
.word 0xf9002234
.word 0xaa0003e1
.word 0xaa1303e0
.word 0xa9bf7ffe
bl _JS_ToObject_GC
.word 0xa8c17ffe
.word 0xd1002294
.word 0xf102081f
b.NE Label_823
.word 0xf8008699
.word 0x910006d6
.word 0xf85b83b1
.word 0xf9002234
b __exception_handler_entry
Label_823:
Label_821:
.word 0xb9414269
cbz w9, Label_824
.word 0xf8008680
.word 0xf8008681
.word 0xb1000ac8
.word 0xf85e83ac
.word 0xf9401989
.word 0xaa0903e2
.word 0xaa0803e1
.word 0xaa1303e0
.word 0xa9bf7ffe
bl _DebuggerCallEachOp
.word 0xa8c17ffe
.word 0xf85f8e81
.word 0xf85f8e80
Label_824:
.word 0x38401ec8
.word 0x9103c908
.word 0xf8685aa9
.word 0xd61f0120
.global _dispatch_table_2_110
_dispatch_table_2_110:
.word 0xd2800048
.word 0xf2ffffc8
.word 0xea01011f
b.EQ Label_825
.word 0xf8008680
.word 0xaa0103f9
.word 0xf8008699
.word 0xf85b83b1
.word 0xf9002234
.word 0xaa1303e0
.word 0xa9bf7ffe
bl _JS_ToObject_GC
.word 0xa8c17ffe
.word 0xd1002294
.word 0xf102081f
b.NE Label_827
.word 0xf8008699
.word 0x910006d6
.word 0xf85b83b1
.word 0xf9002234
b __exception_handler_entry
Label_827:
.word 0xaa0003e1
.word 0xf85f8e80
Label_825:
.word 0xb9414269
cbz w9, Label_828
.word 0xf8008680
.word 0xf8008681
.word 0xb1000ac8
.word 0xf85e83ac
.word 0xf9401989
.word 0xaa0903e2
.word 0xaa0803e1
.word 0xaa1303e0
.word 0xa9bf7ffe
bl _DebuggerCallEachOp
.word 0xa8c17ffe
.word 0xf85f8e81
.word 0xf85f8e80
Label_828:
.word 0x38401ec8
.word 0x91079108
.word 0xf8685aa9
.word 0xd61f0120
.global _dispatch_table_0_111
_dispatch_table_0_111:
.word 0xa9ff0680
.word 0xf2503c28
.word 0xb24f3be9
.word 0xeb090108
cbnz x8, Label_829
b Label_833
Label_829:
.word 0xb25047e9
.word 0xea090039
.word 0xd2800048
.word 0xf2e00028
.word 0xeb08033f
b.NE Label_830
b Label_833
Label_830:
.word 0xb25047e9
.word 0xea090039
.word 0xd2800028
.word 0xf2e00028
.word 0xeb08033f
b.NE Label_831
b Label_833
Label_831:
.word 0xb25047e9
.word 0xea090039
.word 0xb25047e8
.word 0xeb08033f
b.NE Label_834
b Label_833
Label_834:
.word 0xf8008680
.word 0xaa0103f9
.word 0xf8008681
.word 0xf85b83b1
.word 0xf9002234
.word 0xaa1303e0
.word 0xa9bf7ffe
bl _LEPUS_ToPropertyKey
.word 0xa8c17ffe
.word 0xd1002294
.word 0xf102081f
b.NE Label_836
.word 0xf8008699
.word 0x910006d6
.word 0xf85b83b1
.word 0xf9002234
b __exception_handler_entry
Label_836:
.word 0xf8008680
.word 0xf85f8e81
.word 0xf85f8e80
Label_833:
.word 0xb9414269
cbz w9, Label_837
.word 0xf8008680
.word 0xf8008681
.word 0xb1000ac8
.word 0xf85e83ac
.word 0xf9401989
.word 0xaa0903e2
.word 0xaa0803e1
.word 0xaa1303e0
.word 0xa9bf7ffe
bl _DebuggerCallEachOp
.word 0xa8c17ffe
.word 0xf85f8e81
.word 0xf85f8e80
Label_837:
.word 0x38401ec8
.word 0x91079108
.word 0xf8685aa9
.word 0xd61f0120
.global _dispatch_table_1_111
_dispatch_table_1_111:
.word 0xaa0003e1
.word 0xf85f8e80
.global _dispatch_table_2_111
_dispatch_table_2_111:
.word 0xf2503c28
.word 0xb24f3be9
.word 0xeb090108
cbnz x8, Label_838
b Label_842
Label_838:
.word 0xb25047e9
.word 0xea090039
.word 0xd2800048
.word 0xf2e00028
.word 0xeb08033f
b.NE Label_839
b Label_842
Label_839:
.word 0xb25047e9
.word 0xea090039
.word 0xd2800028
.word 0xf2e00028
.word 0xeb08033f
b.NE Label_840
b Label_842
Label_840:
.word 0xb25047e9
.word 0xea090039
.word 0xb25047e8
.word 0xeb08033f
b.NE Label_843
b Label_842
Label_843:
.word 0xf8008680
.word 0xaa0103f9
.word 0xf8008681
.word 0xf85b83b1
.word 0xf9002234
.word 0xaa1303e0
.word 0xa9bf7ffe
bl _LEPUS_ToPropertyKey
.word 0xa8c17ffe
.word 0xd1002294
.word 0xf102081f
b.NE Label_845
.word 0xf8008699
.word 0x910006d6
.word 0xf85b83b1
.word 0xf9002234
b __exception_handler_entry
Label_845:
.word 0xf8008680
.word 0xf85f8e81
.word 0xf85f8e80
Label_842:
.word 0xb9414269
cbz w9, Label_846
.word 0xf8008680
.word 0xf8008681
.word 0xb1000ac8
.word 0xf85e83ac
.word 0xf9401989
.word 0xaa0903e2
.word 0xaa0803e1
.word 0xaa1303e0
.word 0xa9bf7ffe
bl _DebuggerCallEachOp
.word 0xa8c17ffe
.word 0xf85f8e81
.word 0xf85f8e80
Label_846:
.word 0x38401ec8
.word 0x91079108
.word 0xf8685aa9
.word 0xd61f0120
.global _dispatch_table_0_112
_dispatch_table_0_112:
.word 0xa9ff0680
Label_847:
.word 0xd2800248
.word 0xeb08001f
b.NE Label_848
.word 0xf8008680
.word 0xf8008681
.word 0x910006d6
adr x1, Label_856
b Label_857
Label_856:
.asciz "value has no property"
.align 3
Label_857:
.word 0xf85b83b1
.word 0xf9002234
.word 0xaa1303e0
.word 0xa9bf7ffe
bl _LEPUS_ThrowTypeError
.word 0xa8c17ffe
.word 0xf85b83b1
.word 0xf9002234
b __exception_handler_entry
Label_848:
.word 0xb27f03e8
.word 0xeb08001f
b.NE Label_849
.word 0xf8008680
.word 0xf8008681
.word 0x910006d6
adr x1, Label_858
b Label_859
Label_858:
.asciz "value has no property"
.align 3
Label_859:
.word 0xf85b83b1
.word 0xf9002234
.word 0xaa1303e0
.word 0xa9bf7ffe
bl _LEPUS_ThrowTypeError
.word 0xa8c17ffe
.word 0xf85b83b1
.word 0xf9002234
b __exception_handler_entry
Label_849:
.word 0xf2503c28
.word 0xb24f3be9
.word 0xeb090108
cbnz x8, Label_850
b Label_855
Label_850:
.word 0xb25047e9
.word 0xea090039
.word 0xd2800048
.word 0xf2e00028
.word 0xeb08033f
b.NE Label_851
b Label_855
Label_851:
.word 0xb25047e9
.word 0xea090039
.word 0xd2800028
.word 0xf2e00028
.word 0xeb08033f
b.NE Label_852
b Label_855
Label_852:
.word 0xb25047e9
.word 0xea090039
.word 0xb25047e8
.word 0xeb08033f
b.NE Label_854
b Label_855
Label_854:
.word 0xf8008680
.word 0xaa0103f9
.word 0xf8008681
.word 0xf85b83b1
.word 0xf9002234
.word 0xaa1303e0
.word 0xa9bf7ffe
bl _LEPUS_ToPropertyKey
.word 0xa8c17ffe
.word 0xd1002294
.word 0xf102081f
b.NE Label_861
.word 0xf8008699
.word 0x910006d6
.word 0xf85b83b1
.word 0xf9002234
b __exception_handler_entry
Label_861:
.word 0xf8008680
.word 0xf85f8e81
.word 0xf85f8e80
Label_855:
.word 0xb9414269
cbz w9, Label_862
.word 0xf8008680
.word 0xf8008681
.word 0xb1000ac8
.word 0xf85e83ac
.word 0xf9401989
.word 0xaa0903e2
.word 0xaa0803e1
.word 0xaa1303e0
.word 0xa9bf7ffe
bl _DebuggerCallEachOp
.word 0xa8c17ffe
.word 0xf85f8e81
.word 0xf85f8e80
Label_862:
.word 0x38401ec8
.word 0x91079108
.word 0xf8685aa9
.word 0xd61f0120
.global _dispatch_table_1_112
_dispatch_table_1_112:
.word 0xaa0003e1
.word 0xf85f8e80
.global _dispatch_table_2_112
_dispatch_table_2_112:
Label_863:
.word 0xd2800248
.word 0xeb08001f
b.NE Label_864
.word 0xf8008680
.word 0xf8008681
.word 0x910006d6
adr x1, Label_872
b Label_873
Label_872:
.asciz "value has no property"
.align 3
Label_873:
.word 0xf85b83b1
.word 0xf9002234
.word 0xaa1303e0
.word 0xa9bf7ffe
bl _LEPUS_ThrowTypeError
.word 0xa8c17ffe
.word 0xf85b83b1
.word 0xf9002234
b __exception_handler_entry
Label_864:
.word 0xb27f03e8
.word 0xeb08001f
b.NE Label_865
.word 0xf8008680
.word 0xf8008681
.word 0x910006d6
adr x1, Label_874
b Label_875
Label_874:
.asciz "value has no property"
.align 3
Label_875:
.word 0xf85b83b1
.word 0xf9002234
.word 0xaa1303e0
.word 0xa9bf7ffe
bl _LEPUS_ThrowTypeError
.word 0xa8c17ffe
.word 0xf85b83b1
.word 0xf9002234
b __exception_handler_entry
Label_865:
.word 0xf2503c28
.word 0xb24f3be9
.word 0xeb090108
cbnz x8, Label_866
b Label_871
Label_866:
.word 0xb25047e9
.word 0xea090039
.word 0xd2800048
.word 0xf2e00028
.word 0xeb08033f
b.NE Label_867
b Label_871
Label_867:
.word 0xb25047e9
.word 0xea090039
.word 0xd2800028
.word 0xf2e00028
.word 0xeb08033f
b.NE Label_868
b Label_871
Label_868:
.word 0xb25047e9
.word 0xea090039
.word 0xb25047e8
.word 0xeb08033f
b.NE Label_870
b Label_871
Label_870:
.word 0xf8008680
.word 0xaa0103f9
.word 0xf8008681
.word 0xf85b83b1
.word 0xf9002234
.word 0xaa1303e0
.word 0xa9bf7ffe
bl _LEPUS_ToPropertyKey
.word 0xa8c17ffe
.word 0xd1002294
.word 0xf102081f
b.NE Label_877
.word 0xf8008699
.word 0x910006d6
.word 0xf85b83b1
.word 0xf9002234
b __exception_handler_entry
Label_877:
.word 0xf8008680
.word 0xf85f8e81
.word 0xf85f8e80
Label_871:
.word 0xb9414269
cbz w9, Label_878
.word 0xf8008680
.word 0xf8008681
.word 0xb1000ac8
.word 0xf85e83ac
.word 0xf9401989
.word 0xaa0903e2
.word 0xaa0803e1
.word 0xaa1303e0
.word 0xa9bf7ffe
bl _DebuggerCallEachOp
.word 0xa8c17ffe
.word 0xf85f8e81
.word 0xf85f8e80
Label_878:
.word 0x38401ec8
.word 0x91079108
.word 0xf8685aa9
.word 0xd61f0120
.global _dispatch_table_1_113
_dispatch_table_1_113:
.word 0xf8008680
.word 0xf85b83b1
.word 0xf9002234
.word 0xb84012c8
.word 0x394026ca
.word 0xd2800e24
.word 0xf85b83b1
.word 0xf9002234
.word 0xaa0a03e3
.word 0xaa0803e2
.word 0xaa1403e1
.word 0xaa1303e0
.word 0xa9bf7ffe
bl _prim_js_with_op_gc
.word 0xa8c17ffe
.word 0x7100001f
b.GE Label_879
.word 0x91002ad6
.word 0xf85b83b1
.word 0xf9002234
b __exception_handler_entry
Label_879:
cbz x0, Label_880
.word 0xb88052c9
.word 0x91001529
.word 0xab0902d6
.word 0xb9414269
cbz w9, Label_881
.word 0xf8008680
.word 0xf8008681
.word 0x910006c8
.word 0xf85e83ac
.word 0xf9401989
.word 0xaa0903e2
.word 0xaa0803e1
.word 0xaa1303e0
.word 0xa9bf7ffe
bl _DebuggerCallEachOp
.word 0xa8c17ffe
.word 0xf85f8e81
.word 0xf85f8e80
Label_881:
.word 0x394002c8
.word 0x91000108
.word 0xf8685aa9
.word 0xd61f0120
Label_880:
.word 0xd1002294
.word 0xb9414269
cbz w9, Label_882
.word 0xf8008680
.word 0xf8008681
.word 0xb1002ec8
.word 0xf85e83ac
.word 0xf9401989
.word 0xaa0903e2
.word 0xaa0803e1
.word 0xaa1303e0
.word 0xa9bf7ffe
bl _DebuggerCallEachOp
.word 0xa8c17ffe
.word 0xf85f8e81
.word 0xf85f8e80
Label_882:
.word 0x3840aec8
.word 0x91000108
.word 0xf8685aa9
.word 0xd61f0120
.global _dispatch_table_2_113
_dispatch_table_2_113:
.word 0xa8810680
.word 0xf85b83b1
.word 0xf9002234
.global _dispatch_table_0_113
_dispatch_table_0_113:
.word 0xb84012c8
.word 0x394026ca
.word 0xd2800e24
.word 0xf85b83b1
.word 0xf9002234
.word 0xaa0a03e3
.word 0xaa0803e2
.word 0xaa1403e1
.word 0xaa1303e0
.word 0xa9bf7ffe
bl _prim_js_with_op_gc
.word 0xa8c17ffe
.word 0x7100001f
b.GE Label_883
.word 0x91002ad6
.word 0xf85b83b1
.word 0xf9002234
b __exception_handler_entry
Label_883:
cbz x0, Label_884
.word 0xb88052c9
.word 0x91001529
.word 0xab0902d6
.word 0xb9414269
cbz w9, Label_885
.word 0xf8008680
.word 0xf8008681
.word 0x910006c8
.word 0xf85e83ac
.word 0xf9401989
.word 0xaa0903e2
.word 0xaa0803e1
.word 0xaa1303e0
.word 0xa9bf7ffe
bl _DebuggerCallEachOp
.word 0xa8c17ffe
.word 0xf85f8e81
.word 0xf85f8e80
Label_885:
.word 0x394002c8
.word 0x91000108
.word 0xf8685aa9
.word 0xd61f0120
Label_884:
.word 0xd1002294
.word 0xb9414269
cbz w9, Label_886
.word 0xf8008680
.word 0xf8008681
.word 0xb1002ec8
.word 0xf85e83ac
.word 0xf9401989
.word 0xaa0903e2
.word 0xaa0803e1
.word 0xaa1303e0
.word 0xa9bf7ffe
bl _DebuggerCallEachOp
.word 0xa8c17ffe
.word 0xf85f8e81
.word 0xf85f8e80
Label_886:
.word 0x3840aec8
.word 0x91000108
.word 0xf8685aa9
.word 0xd61f0120
.global _dispatch_table_1_114
_dispatch_table_1_114:
.word 0xf8008680
.word 0xf85b83b1
.word 0xf9002234
.word 0xb84012c8
.word 0x394026ca
.word 0xd2800e44
.word 0xf85b83b1
.word 0xf9002234
.word 0xaa0a03e3
.word 0xaa0803e2
.word 0xaa1403e1
.word 0xaa1303e0
.word 0xa9bf7ffe
bl _prim_js_with_op_gc
.word 0xa8c17ffe
.word 0x7100001f
b.GE Label_887
.word 0x91002ad6
.word 0xf85b83b1
.word 0xf9002234
b __exception_handler_entry
Label_887:
cbz x0, Label_888
.word 0xd1004294
.word 0xb88052c9
.word 0x91001529
.word 0xab0902d6
.word 0xb9414269
cbz w9, Label_889
.word 0xf8008680
.word 0xf8008681
.word 0x910006c8
.word 0xf85e83ac
.word 0xf9401989
.word 0xaa0903e2
.word 0xaa0803e1
.word 0xaa1303e0
.word 0xa9bf7ffe
bl _DebuggerCallEachOp
.word 0xa8c17ffe
.word 0xf85f8e81
.word 0xf85f8e80
Label_889:
.word 0x394002c8
.word 0x91000108
.word 0xf8685aa9
.word 0xd61f0120
Label_888:
.word 0xd1002294
.word 0xb9414269
cbz w9, Label_890
.word 0xf8008680
.word 0xf8008681
.word 0xb1002ec8
.word 0xf85e83ac
.word 0xf9401989
.word 0xaa0903e2
.word 0xaa0803e1
.word 0xaa1303e0
.word 0xa9bf7ffe
bl _DebuggerCallEachOp
.word 0xa8c17ffe
.word 0xf85f8e81
.word 0xf85f8e80
Label_890:
.word 0x3840aec8
.word 0x91000108
.word 0xf8685aa9
.word 0xd61f0120
.global _dispatch_table_2_114
_dispatch_table_2_114:
.word 0xa8810680
.word 0xf85b83b1
.word 0xf9002234
.global _dispatch_table_0_114
_dispatch_table_0_114:
.word 0xb84012c8
.word 0x394026ca
.word 0xd2800e44
.word 0xf85b83b1
.word 0xf9002234
.word 0xaa0a03e3
.word 0xaa0803e2
.word 0xaa1403e1
.word 0xaa1303e0
.word 0xa9bf7ffe
bl _prim_js_with_op_gc
.word 0xa8c17ffe
.word 0x7100001f
b.GE Label_891
.word 0x91002ad6
.word 0xf85b83b1
.word 0xf9002234
b __exception_handler_entry
Label_891:
cbz x0, Label_892
.word 0xd1004294
.word 0xb88052c9
.word 0x91001529
.word 0xab0902d6
.word 0xb9414269
cbz w9, Label_893
.word 0xf8008680
.word 0xf8008681
.word 0x910006c8
.word 0xf85e83ac
.word 0xf9401989
.word 0xaa0903e2
.word 0xaa0803e1
.word 0xaa1303e0
.word 0xa9bf7ffe
bl _DebuggerCallEachOp
.word 0xa8c17ffe
.word 0xf85f8e81
.word 0xf85f8e80
Label_893:
.word 0x394002c8
.word 0x91000108
.word 0xf8685aa9
.word 0xd61f0120
Label_892:
.word 0xd1002294
.word 0xb9414269
cbz w9, Label_894
.word 0xf8008680
.word 0xf8008681
.word 0xb1002ec8
.word 0xf85e83ac
.word 0xf9401989
.word 0xaa0903e2
.word 0xaa0803e1
.word 0xaa1303e0
.word 0xa9bf7ffe
bl _DebuggerCallEachOp
.word 0xa8c17ffe
.word 0xf85f8e81
.word 0xf85f8e80
Label_894:
.word 0x3840aec8
.word 0x91000108
.word 0xf8685aa9
.word 0xd61f0120
.global _dispatch_table_1_115
_dispatch_table_1_115:
.word 0xf8008680
.word 0xf85b83b1
.word 0xf9002234
.word 0xb84012c8
.word 0x394026ca
.word 0xd2800e64
.word 0xf85b83b1
.word 0xf9002234
.word 0xaa0a03e3
.word 0xaa0803e2
.word 0xaa1403e1
.word 0xaa1303e0
.word 0xa9bf7ffe
bl _prim_js_with_op_gc
.word 0xa8c17ffe
.word 0x7100001f
b.GE Label_895
.word 0x91002ad6
.word 0xf85b83b1
.word 0xf9002234
b __exception_handler_entry
Label_895:
cbz x0, Label_896
.word 0xb88052c9
.word 0x91001529
.word 0xab0902d6
.word 0xb9414269
cbz w9, Label_897
.word 0xf8008680
.word 0xf8008681
.word 0x910006c8
.word 0xf85e83ac
.word 0xf9401989
.word 0xaa0903e2
.word 0xaa0803e1
.word 0xaa1303e0
.word 0xa9bf7ffe
bl _DebuggerCallEachOp
.word 0xa8c17ffe
.word 0xf85f8e81
.word 0xf85f8e80
Label_897:
.word 0x394002c8
.word 0x91000108
.word 0xf8685aa9
.word 0xd61f0120
Label_896:
.word 0xd1002294
.word 0xb9414269
cbz w9, Label_898
.word 0xf8008680
.word 0xf8008681
.word 0xb1002ec8
.word 0xf85e83ac
.word 0xf9401989
.word 0xaa0903e2
.word 0xaa0803e1
.word 0xaa1303e0
.word 0xa9bf7ffe
bl _DebuggerCallEachOp
.word 0xa8c17ffe
.word 0xf85f8e81
.word 0xf85f8e80
Label_898:
.word 0x3840aec8
.word 0x91000108
.word 0xf8685aa9
.word 0xd61f0120
.global _dispatch_table_2_115
_dispatch_table_2_115:
.word 0xa8810680
.word 0xf85b83b1
.word 0xf9002234
.global _dispatch_table_0_115
_dispatch_table_0_115:
.word 0xb84012c8
.word 0x394026ca
.word 0xd2800e64
.word 0xf85b83b1
.word 0xf9002234
.word 0xaa0a03e3
.word 0xaa0803e2
.word 0xaa1403e1
.word 0xaa1303e0
.word 0xa9bf7ffe
bl _prim_js_with_op_gc
.word 0xa8c17ffe
.word 0x7100001f
b.GE Label_899
.word 0x91002ad6
.word 0xf85b83b1
.word 0xf9002234
b __exception_handler_entry
Label_899:
cbz x0, Label_900
.word 0xb88052c9
.word 0x91001529
.word 0xab0902d6
.word 0xb9414269
cbz w9, Label_901
.word 0xf8008680
.word 0xf8008681
.word 0x910006c8
.word 0xf85e83ac
.word 0xf9401989
.word 0xaa0903e2
.word 0xaa0803e1
.word 0xaa1303e0
.word 0xa9bf7ffe
bl _DebuggerCallEachOp
.word 0xa8c17ffe
.word 0xf85f8e81
.word 0xf85f8e80
Label_901:
.word 0x394002c8
.word 0x91000108
.word 0xf8685aa9
.word 0xd61f0120
Label_900:
.word 0xd1002294
.word 0xb9414269
cbz w9, Label_902
.word 0xf8008680
.word 0xf8008681
.word 0xb1002ec8
.word 0xf85e83ac
.word 0xf9401989
.word 0xaa0903e2
.word 0xaa0803e1
.word 0xaa1303e0
.word 0xa9bf7ffe
bl _DebuggerCallEachOp
.word 0xa8c17ffe
.word 0xf85f8e81
.word 0xf85f8e80
Label_902:
.word 0x3840aec8
.word 0x91000108
.word 0xf8685aa9
.word 0xd61f0120
.global _dispatch_table_1_116
_dispatch_table_1_116:
.word 0xf8008680
.word 0xf85b83b1
.word 0xf9002234
.word 0xb84012c8
.word 0x394026ca
.word 0xd2800e84
.word 0xf85b83b1
.word 0xf9002234
.word 0xaa0a03e3
.word 0xaa0803e2
.word 0xaa1403e1
.word 0xaa1303e0
.word 0xa9bf7ffe
bl _prim_js_with_op_gc
.word 0xa8c17ffe
.word 0x7100001f
b.GE Label_903
.word 0x91002ad6
.word 0xf85b83b1
.word 0xf9002234
b __exception_handler_entry
Label_903:
cbz x0, Label_904
.word 0x91002294
.word 0xb88052c3
.word 0x91001463
.word 0xab0302d6
.word 0xb9414269
cbz w9, Label_905
.word 0xf8008680
.word 0xf8008681
.word 0x910006c8
.word 0xf85e83ac
.word 0xf9401989
.word 0xaa0903e2
.word 0xaa0803e1
.word 0xaa1303e0
.word 0xa9bf7ffe
bl _DebuggerCallEachOp
.word 0xa8c17ffe
.word 0xf85f8e81
.word 0xf85f8e80
Label_905:
.word 0x394002c8
.word 0x91000108
.word 0xf8685aa9
.word 0xd61f0120
Label_904:
.word 0xd1002294
.word 0xb9414269
cbz w9, Label_906
.word 0xf8008680
.word 0xf8008681
.word 0xb1002ec8
.word 0xf85e83ac
.word 0xf9401989
.word 0xaa0903e2
.word 0xaa0803e1
.word 0xaa1303e0
.word 0xa9bf7ffe
bl _DebuggerCallEachOp
.word 0xa8c17ffe
.word 0xf85f8e81
.word 0xf85f8e80
Label_906:
.word 0x3840aec8
.word 0x91000108
.word 0xf8685aa9
.word 0xd61f0120
.global _dispatch_table_2_116
_dispatch_table_2_116:
.word 0xa8810680
.word 0xf85b83b1
.word 0xf9002234
.global _dispatch_table_0_116
_dispatch_table_0_116:
.word 0xb84012c8
.word 0x394026ca
.word 0xd2800e84
.word 0xf85b83b1
.word 0xf9002234
.word 0xaa0a03e3
.word 0xaa0803e2
.word 0xaa1403e1
.word 0xaa1303e0
.word 0xa9bf7ffe
bl _prim_js_with_op_gc
.word 0xa8c17ffe
.word 0x7100001f
b.GE Label_907
.word 0x91002ad6
.word 0xf85b83b1
.word 0xf9002234
b __exception_handler_entry
Label_907:
cbz x0, Label_908
.word 0x91002294
.word 0xb88052c3
.word 0x91001463
.word 0xab0302d6
.word 0xb9414269
cbz w9, Label_909
.word 0xf8008680
.word 0xf8008681
.word 0x910006c8
.word 0xf85e83ac
.word 0xf9401989
.word 0xaa0903e2
.word 0xaa0803e1
.word 0xaa1303e0
.word 0xa9bf7ffe
bl _DebuggerCallEachOp
.word 0xa8c17ffe
.word 0xf85f8e81
.word 0xf85f8e80
Label_909:
.word 0x394002c8
.word 0x91000108
.word 0xf8685aa9
.word 0xd61f0120
Label_908:
.word 0xd1002294
.word 0xb9414269
cbz w9, Label_910
.word 0xf8008680
.word 0xf8008681
.word 0xb1002ec8
.word 0xf85e83ac
.word 0xf9401989
.word 0xaa0903e2
.word 0xaa0803e1
.word 0xaa1303e0
.word 0xa9bf7ffe
bl _DebuggerCallEachOp
.word 0xa8c17ffe
.word 0xf85f8e81
.word 0xf85f8e80
Label_910:
.word 0x3840aec8
.word 0x91000108
.word 0xf8685aa9
.word 0xd61f0120
.global _dispatch_table_1_117
_dispatch_table_1_117:
.word 0xf8008680
.word 0xf85b83b1
.word 0xf9002234
.word 0xb84012c8
.word 0x394026ca
.word 0xd2800ea4
.word 0xf85b83b1
.word 0xf9002234
.word 0xaa0a03e3
.word 0xaa0803e2
.word 0xaa1403e1
.word 0xaa1303e0
.word 0xa9bf7ffe
bl _prim_js_with_op_gc
.word 0xa8c17ffe
.word 0x7100001f
b.GE Label_911
.word 0x91002ad6
.word 0xf85b83b1
.word 0xf9002234
b __exception_handler_entry
Label_911:
cbz x0, Label_912
.word 0x91002294
.word 0xb88052c9
.word 0x91001529
.word 0xab0902d6
.word 0xb9414269
cbz w9, Label_913
.word 0xf8008680
.word 0xf8008681
.word 0x910006c8
.word 0xf85e83ac
.word 0xf9401989
.word 0xaa0903e2
.word 0xaa0803e1
.word 0xaa1303e0
.word 0xa9bf7ffe
bl _DebuggerCallEachOp
.word 0xa8c17ffe
.word 0xf85f8e81
.word 0xf85f8e80
Label_913:
.word 0x394002c8
.word 0x91000108
.word 0xf8685aa9
.word 0xd61f0120
Label_912:
.word 0xd1002294
.word 0xb9414269
cbz w9, Label_914
.word 0xf8008680
.word 0xf8008681
.word 0xb1002ec8
.word 0xf85e83ac
.word 0xf9401989
.word 0xaa0903e2
.word 0xaa0803e1
.word 0xaa1303e0
.word 0xa9bf7ffe
bl _DebuggerCallEachOp
.word 0xa8c17ffe
.word 0xf85f8e81
.word 0xf85f8e80
Label_914:
.word 0x3840aec8
.word 0x91000108
.word 0xf8685aa9
.word 0xd61f0120
.global _dispatch_table_2_117
_dispatch_table_2_117:
.word 0xa8810680
.word 0xf85b83b1
.word 0xf9002234
.global _dispatch_table_0_117
_dispatch_table_0_117:
.word 0xb84012c8
.word 0x394026ca
.word 0xd2800ea4
.word 0xf85b83b1
.word 0xf9002234
.word 0xaa0a03e3
.word 0xaa0803e2
.word 0xaa1403e1
.word 0xaa1303e0
.word 0xa9bf7ffe
bl _prim_js_with_op_gc
.word 0xa8c17ffe
.word 0x7100001f
b.GE Label_915
.word 0x91002ad6
.word 0xf85b83b1
.word 0xf9002234
b __exception_handler_entry
Label_915:
cbz x0, Label_916
.word 0x91002294
.word 0xb88052c9
.word 0x91001529
.word 0xab0902d6
.word 0xb9414269
cbz w9, Label_917
.word 0xf8008680
.word 0xf8008681
.word 0x910006c8
.word 0xf85e83ac
.word 0xf9401989
.word 0xaa0903e2
.word 0xaa0803e1
.word 0xaa1303e0
.word 0xa9bf7ffe
bl _DebuggerCallEachOp
.word 0xa8c17ffe
.word 0xf85f8e81
.word 0xf85f8e80
Label_917:
.word 0x394002c8
.word 0x91000108
.word 0xf8685aa9
.word 0xd61f0120
Label_916:
.word 0xd1002294
.word 0xb9414269
cbz w9, Label_918
.word 0xf8008680
.word 0xf8008681
.word 0xb1002ec8
.word 0xf85e83ac
.word 0xf9401989
.word 0xaa0903e2
.word 0xaa0803e1
.word 0xaa1303e0
.word 0xa9bf7ffe
bl _DebuggerCallEachOp
.word 0xa8c17ffe
.word 0xf85f8e81
.word 0xf85f8e80
Label_918:
.word 0x3840aec8
.word 0x91000108
.word 0xf8685aa9
.word 0xd61f0120
.global _dispatch_table_1_118
_dispatch_table_1_118:
.word 0xf8008680
.word 0xf85b83b1
.word 0xf9002234
.word 0xb84012c8
.word 0x394026ca
.word 0xd2800ec4
.word 0xf85b83b1
.word 0xf9002234
.word 0xaa0a03e3
.word 0xaa0803e2
.word 0xaa1403e1
.word 0xaa1303e0
.word 0xa9bf7ffe
bl _prim_js_with_op_gc
.word 0xa8c17ffe
.word 0x7100001f
b.GE Label_919
.word 0x91002ad6
.word 0xf85b83b1
.word 0xf9002234
b __exception_handler_entry
Label_919:
cbz x0, Label_920
.word 0x91002294
.word 0xb88052c9
.word 0x91001529
.word 0xab0902d6
.word 0xb9414269
cbz w9, Label_921
.word 0xf8008680
